TN:
SF:/usr/include/c++/11/bits/std_abs.h
FN:71,_ZSt3absd
FNDA:6450,_ZSt3absd
DA:71,6450
DA:72,6450
end_of_record
SF:/usr/include/c++/11/iostream
end_of_record
SF:/home/ag/Studying/SemsterB/System Programming/EX4/Complex.cpp
FN:6,_ZN7ComplexC2ERKdS1_
FNDA:5,_ZN7ComplexC2ERKdS1_
FN:9,_ZNK7Complex2reEv
FNDA:0,_ZNK7Complex2reEv
FN:13,_ZNK7Complex2imEv
FNDA:0,_ZNK7Complex2imEv
FN:18,_ZNK7ComplexntEv
FNDA:0,_ZNK7ComplexntEv
FN:22,_ZNK7ComplexngEv
FNDA:0,_ZNK7ComplexngEv
FN:27,_ZNK7ComplexplERKS_
FNDA:0,_ZNK7ComplexplERKS_
FN:31,_ZN7ComplexpLERKS_
FNDA:0,_ZN7ComplexpLERKS_
FN:37,_ZN7ComplexmIERKS_
FNDA:0,_ZN7ComplexmIERKS_
FN:43,_ZN7ComplexmLERKS_
FNDA:0,_ZN7ComplexmLERKS_
FN:52,_ZN7ComplexppEv
FNDA:0,_ZN7ComplexppEv
FN:58,_ZN7ComplexppEi
FNDA:0,_ZN7ComplexppEi
FN:64,_ZNK7ComplexltERKS_
FNDA:0,_ZNK7ComplexltERKS_
FN:68,_ZNK7ComplexgtERKS_
FNDA:6,_ZNK7ComplexgtERKS_
FN:73,_ZmiRK7ComplexS1_
FNDA:0,_ZmiRK7ComplexS1_
FN:77,_ZmlRK7ComplexS1_
FNDA:0,_ZmlRK7ComplexS1_
FN:84,_ZeqRK7ComplexS1_
FNDA:0,_ZeqRK7ComplexS1_
FN:88,_ZneRK7ComplexS1_
FNDA:0,_ZneRK7ComplexS1_
FN:93,_ZlsRSoRK7Complex
FNDA:6450,_ZlsRSoRK7Complex
FN:97,_ZrsRSiR7Complex
FNDA:0,_ZrsRSiR7Complex
DA:6,5
DA:9,0
DA:10,0
DA:13,0
DA:14,0
DA:18,0
DA:19,0
DA:22,0
DA:23,0
DA:27,0
DA:28,0
DA:31,0
DA:32,0
DA:33,0
DA:34,0
DA:37,0
DA:38,0
DA:39,0
DA:40,0
DA:43,0
DA:44,0
DA:45,0
DA:46,0
DA:47,0
DA:48,0
DA:52,0
DA:53,0
DA:54,0
DA:58,0
DA:59,0
DA:60,0
DA:61,0
DA:64,0
DA:65,0
DA:68,6
DA:69,6
DA:73,0
DA:74,0
DA:77,0
DA:78,0
DA:79,0
DA:84,0
DA:85,0
DA:88,0
DA:89,0
DA:93,6450
DA:94,6450
DA:95,6450
DA:97,0
DA:98,0
DA:101,0
DA:102,0
DA:103,0
DA:104,0
DA:105,0
DA:106,0
DA:107,0
DA:109,0
DA:112,0
DA:115,0
end_of_record
TN:
SF:/usr/include/c++/11/iostream
end_of_record
SF:/home/ag/Studying/SemsterB/System Programming/EX4/Tree.cpp
end_of_record
TN:
SF:/usr/include/c++/11/bits/alloc_traits.h
FN:463,_ZNSt16allocator_traitsISaIPPN5ariel4TreeI7ComplexLm2EE4NodeEEE8allocateERS7_m
FNDA:16,_ZNSt16allocator_traitsISaIPPN5ariel4TreeI7ComplexLm2EE4NodeEEE8allocateERS7_m
FN:463,_ZNSt16allocator_traitsISaIPPPN5ariel4TreeI7ComplexLm2EE4NodeEEE8allocateERS8_m
FNDA:1,_ZNSt16allocator_traitsISaIPPPN5ariel4TreeI7ComplexLm2EE4NodeEEE8allocateERS8_m
FN:463,_ZNSt16allocator_traitsISaI7ComplexEE8allocateERS1_m
FNDA:4,_ZNSt16allocator_traitsISaI7ComplexEE8allocateERS1_m
FN:463,_ZNSt16allocator_traitsISaIPN5ariel4TreeI7ComplexLm2EE4NodeEEE8allocateERS6_m
FNDA:15,_ZNSt16allocator_traitsISaIPN5ariel4TreeI7ComplexLm2EE4NodeEEE8allocateERS6_m
FN:495,_ZNSt16allocator_traitsISaIjEE10deallocateERS0_Pjm
FNDA:12881,_ZNSt16allocator_traitsISaIjEE10deallocateERS0_Pjm
FN:495,_ZNSt16allocator_traitsISaI7ComplexEE10deallocateERS1_PS0_m
FNDA:4,_ZNSt16allocator_traitsISaI7ComplexEE10deallocateERS1_PS0_m
FN:495,_ZNSt16allocator_traitsISaIPN5ariel4TreeI7ComplexLm2EE4NodeEEE10deallocateERS6_PS5_m
FNDA:15,_ZNSt16allocator_traitsISaIPN5ariel4TreeI7ComplexLm2EE4NodeEEE10deallocateERS6_PS5_m
FN:495,_ZNSt16allocator_traitsISaIPPPN5ariel4TreeI7ComplexLm2EE4NodeEEE10deallocateERS8_PS7_m
FNDA:1,_ZNSt16allocator_traitsISaIPPPN5ariel4TreeI7ComplexLm2EE4NodeEEE10deallocateERS8_PS7_m
FN:495,_ZNSt16allocator_traitsISaIN2sf6VertexEEE10deallocateERS2_PS1_m
FNDA:6440,_ZNSt16allocator_traitsISaIN2sf6VertexEEE10deallocateERS2_PS1_m
FN:495,_ZNSt16allocator_traitsISaIPPN5ariel4TreeI7ComplexLm2EE4NodeEEE10deallocateERS7_PS6_m
FNDA:16,_ZNSt16allocator_traitsISaIPPN5ariel4TreeI7ComplexLm2EE4NodeEEE10deallocateERS7_PS6_m
FN:511,_ZNSt16allocator_traitsISaIPPN5ariel4TreeI7ComplexLm2EE4NodeEEE9constructIS6_JS6_EEEvRS7_PT_DpOT0_
FNDA:11,_ZNSt16allocator_traitsISaIPPN5ariel4TreeI7ComplexLm2EE4NodeEEE9constructIS6_JS6_EEEvRS7_PT_DpOT0_
FN:511,_ZNSt16allocator_traitsISaI7ComplexEE9constructIS0_JRKS0_EEEvRS1_PT_DpOT0_
FNDA:5,_ZNSt16allocator_traitsISaI7ComplexEE9constructIS0_JRKS0_EEEvRS1_PT_DpOT0_
FN:511,_ZNSt16allocator_traitsISaIPN5ariel4TreeI7ComplexLm2EE4NodeEEE9constructIS5_JRKS5_EEEvRS6_PT_DpOT0_
FNDA:15,_ZNSt16allocator_traitsISaIPN5ariel4TreeI7ComplexLm2EE4NodeEEE9constructIS5_JRKS5_EEEvRS6_PT_DpOT0_
FN:511,_ZNSt16allocator_traitsISaI7ComplexEE9constructIS0_JS0_EEEvRS1_PT_DpOT0_
FNDA:7,_ZNSt16allocator_traitsISaI7ComplexEE9constructIS0_JS0_EEEvRS1_PT_DpOT0_
FN:531,_ZNSt16allocator_traitsISaIPPN5ariel4TreeI7ComplexLm2EE4NodeEEE7destroyIS6_EEvRS7_PT_
FNDA:5,_ZNSt16allocator_traitsISaIPPN5ariel4TreeI7ComplexLm2EE4NodeEEE7destroyIS6_EEvRS7_PT_
FN:531,_ZNSt16allocator_traitsISaI7ComplexEE7destroyIS0_EEvRS1_PT_
FNDA:7,_ZNSt16allocator_traitsISaI7ComplexEE7destroyIS0_EEvRS1_PT_
FN:531,_ZNSt16allocator_traitsISaIPN5ariel4TreeI7ComplexLm2EE4NodeEEE7destroyIS5_EEvRS6_PT_
FNDA:15,_ZNSt16allocator_traitsISaIPN5ariel4TreeI7ComplexLm2EE4NodeEEE7destroyIS5_EEvRS6_PT_
FN:547,_ZNSt16allocator_traitsISaIPPN5ariel4TreeI7ComplexLm2EE4NodeEEE8max_sizeERKS7_
FNDA:0,_ZNSt16allocator_traitsISaIPPN5ariel4TreeI7ComplexLm2EE4NodeEEE8max_sizeERKS7_
FN:547,_ZNSt16allocator_traitsISaIPN5ariel4TreeI7ComplexLm2EE4NodeEEE8max_sizeERKS6_
FNDA:0,_ZNSt16allocator_traitsISaIPN5ariel4TreeI7ComplexLm2EE4NodeEEE8max_sizeERKS6_
FN:547,_ZNSt16allocator_traitsISaI7ComplexEE8max_sizeERKS1_
FNDA:8,_ZNSt16allocator_traitsISaI7ComplexEE8max_sizeERKS1_
FN:845,_ZSt8_DestroyIPN2sf6VertexES1_EvT_S3_RSaIT0_E
FNDA:12880,_ZSt8_DestroyIPN2sf6VertexES1_EvT_S3_RSaIT0_E
FN:845,_ZSt8_DestroyIP7ComplexS0_EvT_S2_RSaIT0_E
FNDA:1,_ZSt8_DestroyIP7ComplexS0_EvT_S2_RSaIT0_E
DA:463,1
DA:464,1
DA:463,15
DA:464,15
DA:463,4
DA:464,4
DA:463,16
DA:464,16
DA:495,6440
DA:496,6440
DA:495,1
DA:496,1
DA:495,15
DA:496,15
DA:495,4
DA:496,4
DA:495,12881
DA:496,12881
DA:495,16
DA:496,16
DA:511,7
DA:516,7
DA:520,7
DA:511,11
DA:516,11
DA:520,11
DA:511,15
DA:516,15
DA:520,15
DA:511,5
DA:516,5
DA:520,5
DA:531,5
DA:535,5
DA:539,5
DA:531,7
DA:535,7
DA:539,7
DA:531,15
DA:535,15
DA:539,15
DA:547,0
DA:550,0
DA:547,8
DA:550,8
DA:547,0
DA:550,0
DA:845,12880
DA:848,12880
DA:849,12880
DA:845,1
DA:848,1
DA:849,1
end_of_record
SF:/home/ag/Studying/SemsterB/System Programming/EX4/Demo.cpp
FN:8,main
FNDA:1,main
DA:8,1
DA:10,1
DA:11,1
DA:13,1
DA:14,1
DA:15,1
DA:17,1
DA:18,1
DA:19,1
DA:22,1
DA:24,1289
DA:26,1451
DA:27,163
DA:28,1
DA:32,1288
DA:33,1288
DA:34,1288
DA:39,1
DA:40,1
DA:41,6
DA:42,5
DA:44,1
DA:45,1
DA:46,0
DA:47,0
DA:50,1
DA:51,6
DA:52,5
DA:53,1
DA:54,1
DA:56,1
DA:57,1
end_of_record
SF:/usr/include/c++/11/new
FN:174,_ZnwmPv
FNDA:38,_ZnwmPv
DA:174,38
DA:175,38
end_of_record
SF:/usr/include/c++/11/bits/stl_uninitialized.h
FN:85,_ZNSt20__uninitialized_copyILb0EE13__uninit_copyISt13move_iteratorIP7ComplexES4_EET0_T_S7_S6_
FNDA:0,_ZNSt20__uninitialized_copyILb0EE13__uninit_copyISt13move_iteratorIP7ComplexES4_EET0_T_S7_S6_
FN:126,_ZSt18uninitialized_copyISt13move_iteratorIP7ComplexES2_ET0_T_S5_S4_
FNDA:0,_ZSt18uninitialized_copyISt13move_iteratorIP7ComplexES2_ET0_T_S5_S4_
FN:331,_ZSt22__uninitialized_copy_aISt13move_iteratorIP7ComplexES2_S1_ET0_T_S5_S4_RSaIT1_E
FNDA:0,_ZSt22__uninitialized_copy_aISt13move_iteratorIP7ComplexES2_S1_ET0_T_S5_S4_RSaIT1_E
FN:349,_ZSt34__uninitialized_move_if_noexcept_aIP7ComplexS1_SaIS0_EET0_T_S4_S3_RT1_
FNDA:0,_ZSt34__uninitialized_move_if_noexcept_aIP7ComplexS1_SaIS0_EET0_T_S4_S3_RT1_
FN:986,_ZSt19__relocate_object_aI7ComplexS0_SaIS0_EEvPT_PT0_RT1_
FNDA:7,_ZSt19__relocate_object_aI7ComplexS0_SaIS0_EEvPT_PT0_RT1_
FN:1018,_ZSt14__relocate_a_1IP7ComplexS1_SaIS0_EET0_T_S4_S3_RT1_
FNDA:8,_ZSt14__relocate_a_1IP7ComplexS1_SaIS0_EET0_T_S4_S3_RT1_
FN:1040,_ZSt12__relocate_aIP7ComplexS1_SaIS0_EET0_T_S4_S3_RT1_
FNDA:8,_ZSt12__relocate_aIP7ComplexS1_SaIS0_EET0_T_S4_S3_RT1_
DA:85,0
DA:88,0
DA:91,0
DA:92,0
DA:93,0
DA:95,0
DA:97,0
DA:98,0
DA:126,0
DA:145,0
DA:151,0
DA:331,0
DA:333,0
DA:349,0
DA:355,0
DA:356,0
DA:986,7
DA:994,7
DA:995,7
DA:996,7
DA:1018,8
DA:1030,8
DA:1031,15
DA:1032,7
DA:1034,8
DA:1040,8
DA:1046,8
DA:1048,8
end_of_record
SF:/usr/include/c++/11/bits/ptr_traits.h
FN:149,_ZNSt14pointer_traitsIPKjE10pointer_toERS0_
FNDA:12881,_ZNSt14pointer_traitsIPKjE10pointer_toERS0_
DA:149,12881
DA:150,12881
end_of_record
SF:/usr/include/c++/11/bits/stl_vector.h
FN:97,_ZNSt12_Vector_baseI7ComplexSaIS0_EE17_Vector_impl_dataC2Ev
FNDA:1,_ZNSt12_Vector_baseI7ComplexSaIS0_EE17_Vector_impl_dataC2Ev
FN:131,_ZNSt12_Vector_baseI7ComplexSaIS0_EE12_Vector_implC2Ev
FNDA:1,_ZNSt12_Vector_baseI7ComplexSaIS0_EE12_Vector_implC2Ev
FN:276,_ZNSt12_Vector_baseI7ComplexSaIS0_EE19_M_get_Tp_allocatorEv
FNDA:9,_ZNSt12_Vector_baseI7ComplexSaIS0_EE19_M_get_Tp_allocatorEv
FN:276,_ZNSt12_Vector_baseIN2sf6VertexESaIS1_EE19_M_get_Tp_allocatorEv
FNDA:12880,_ZNSt12_Vector_baseIN2sf6VertexESaIS1_EE19_M_get_Tp_allocatorEv
FN:280,_ZNKSt12_Vector_baseI7ComplexSaIS0_EE19_M_get_Tp_allocatorEv
FNDA:8,_ZNKSt12_Vector_baseI7ComplexSaIS0_EE19_M_get_Tp_allocatorEv
FN:288,_ZNSt12_Vector_baseI7ComplexSaIS0_EEC2Ev
FNDA:1,_ZNSt12_Vector_baseI7ComplexSaIS0_EEC2Ev
FN:333,_ZNSt12_Vector_baseI7ComplexSaIS0_EED2Ev
FNDA:1,_ZNSt12_Vector_baseI7ComplexSaIS0_EED2Ev
FN:333,_ZNSt12_Vector_baseIN2sf6VertexESaIS1_EED2Ev
FNDA:12880,_ZNSt12_Vector_baseIN2sf6VertexESaIS1_EED2Ev
FN:343,_ZNSt12_Vector_baseI7ComplexSaIS0_EE11_M_allocateEm
FNDA:4,_ZNSt12_Vector_baseI7ComplexSaIS0_EE11_M_allocateEm
FN:350,_ZNSt12_Vector_baseIN2sf6VertexESaIS1_EE13_M_deallocateEPS1_m
FNDA:12880,_ZNSt12_Vector_baseIN2sf6VertexESaIS1_EE13_M_deallocateEPS1_m
FN:350,_ZNSt12_Vector_baseI7ComplexSaIS0_EE13_M_deallocateEPS0_m
FNDA:5,_ZNSt12_Vector_baseI7ComplexSaIS0_EE13_M_deallocateEPS0_m
FN:431,_ZNSt6vectorI7ComplexSaIS0_EE19_S_nothrow_relocateESt17integral_constantIbLb1EE
FNDA:8,_ZNSt6vectorI7ComplexSaIS0_EE19_S_nothrow_relocateESt17integral_constantIbLb1EE
FN:444,_ZNSt6vectorI7ComplexSaIS0_EE15_S_use_relocateEv
FNDA:8,_ZNSt6vectorI7ComplexSaIS0_EE15_S_use_relocateEv
FN:453,_ZNSt6vectorI7ComplexSaIS0_EE14_S_do_relocateEPS0_S3_S3_RS1_St17integral_constantIbLb1EE
FNDA:8,_ZNSt6vectorI7ComplexSaIS0_EE14_S_do_relocateEPS0_S3_S3_RS1_St17integral_constantIbLb1EE
FN:465,_ZNSt6vectorI7ComplexSaIS0_EE11_S_relocateEPS0_S3_S3_RS1_
FNDA:8,_ZNSt6vectorI7ComplexSaIS0_EE11_S_relocateEPS0_S3_S3_RS1_
FN:487,_ZNSt6vectorI7ComplexSaIS0_EEC2Ev
FNDA:1,_ZNSt6vectorI7ComplexSaIS0_EEC2Ev
FN:678,_ZNSt6vectorIN2sf6VertexESaIS1_EED2Ev
FNDA:12880,_ZNSt6vectorIN2sf6VertexESaIS1_EED2Ev
FN:678,_ZNSt6vectorI7ComplexSaIS0_EED2Ev
FNDA:1,_ZNSt6vectorI7ComplexSaIS0_EED2Ev
FN:811,_ZNSt6vectorI7ComplexSaIS0_EE5beginEv
FNDA:6,_ZNSt6vectorI7ComplexSaIS0_EE5beginEv
FN:829,_ZNSt6vectorI7ComplexSaIS0_EE3endEv
FNDA:6,_ZNSt6vectorI7ComplexSaIS0_EE3endEv
FN:918,_ZNKSt6vectorI7ComplexSaIS0_EE4sizeEv
FNDA:16,_ZNKSt6vectorI7ComplexSaIS0_EE4sizeEv
FN:923,_ZNKSt6vectorI7ComplexSaIS0_EE8max_sizeEv
FNDA:8,_ZNKSt6vectorI7ComplexSaIS0_EE8max_sizeEv
FN:1187,_ZNSt6vectorI7ComplexSaIS0_EE9push_backERKS0_
FNDA:5,_ZNSt6vectorI7ComplexSaIS0_EE9push_backERKS0_
FN:1756,_ZNKSt6vectorI7ComplexSaIS0_EE12_M_check_lenEmPKc
FNDA:4,_ZNKSt6vectorI7ComplexSaIS0_EE12_M_check_lenEmPKc
FN:1776,_ZNSt6vectorI7ComplexSaIS0_EE11_S_max_sizeERKS1_
FNDA:8,_ZNSt6vectorI7ComplexSaIS0_EE11_S_max_sizeERKS1_
DA:97,1
DA:98,1
DA:99,1
DA:131,1
DA:133,1
DA:134,1
DA:276,12880
DA:277,12880
DA:276,9
DA:277,9
DA:280,8
DA:281,8
DA:288,1
DA:333,12880
DA:335,12880
DA:336,12880
DA:337,12880
DA:333,1
DA:335,1
DA:336,1
DA:337,1
DA:343,4
DA:346,4
DA:350,12880
DA:353,12880
DA:354,6440
DA:355,12880
DA:350,5
DA:353,5
DA:354,4
DA:355,5
DA:431,8
DA:436,8
DA:444,8
DA:449,8
DA:453,8
DA:456,8
DA:465,8
DA:469,8
DA:487,1
DA:678,12880
DA:680,12880
DA:681,12880
DA:683,12880
DA:678,1
DA:680,1
DA:681,1
DA:683,1
DA:811,6
DA:812,6
DA:829,6
DA:830,6
DA:918,16
DA:919,16
DA:923,8
DA:924,8
DA:1187,5
DA:1189,5
DA:1192,1
DA:1194,1
DA:1198,4
DA:1199,5
DA:1756,4
DA:1758,4
DA:1759,0
DA:1761,4
DA:1762,4
DA:1776,8
DA:1781,8
DA:1783,8
DA:1784,8
end_of_record
SF:/usr/include/SFML/Graphics/CircleShape.hpp
end_of_record
SF:/home/ag/Studying/SemsterB/System Programming/EX4/Tree.hpp
FN:22,_ZN5ariel4TreeI7ComplexLm2EE4NodeC2ERKS1_
FNDA:10,_ZN5ariel4TreeI7ComplexLm2EE4NodeC2ERKS1_
DA:22,10
DA:23,30
DA:24,20
DA:26,10
end_of_record
SF:/usr/include/c++/11/bits/move.h
FN:49,_ZSt11__addressofI7ComplexEPT_RS1_
FNDA:21,_ZSt11__addressofI7ComplexEPT_RS1_
FN:49,_ZSt11__addressofIKjEPT_RS1_
FNDA:12881,_ZSt11__addressofIKjEPT_RS1_
FN:77,_ZSt7forwardI7ComplexEOT_RNSt16remove_referenceIS1_E4typeE
FNDA:14,_ZSt7forwardI7ComplexEOT_RNSt16remove_referenceIS1_E4typeE
FN:77,_ZSt7forwardIPPN5ariel4TreeI7ComplexLm2EE4NodeEEOT_RNSt16remove_referenceIS7_E4typeE
FNDA:33,_ZSt7forwardIPPN5ariel4TreeI7ComplexLm2EE4NodeEEOT_RNSt16remove_referenceIS7_E4typeE
FN:77,_ZSt7forwardIRKPN5ariel4TreeI7ComplexLm2EE4NodeEEOT_RNSt16remove_referenceIS8_E4typeE
FNDA:30,_ZSt7forwardIRKPN5ariel4TreeI7ComplexLm2EE4NodeEEOT_RNSt16remove_referenceIS8_E4typeE
FN:77,_ZSt7forwardIRK7ComplexEOT_RNSt16remove_referenceIS3_E4typeE
FNDA:14,_ZSt7forwardIRK7ComplexEOT_RNSt16remove_referenceIS3_E4typeE
FN:104,_ZSt4moveIRP7ComplexEONSt16remove_referenceIT_E4typeEOS4_
FNDA:0,_ZSt4moveIRP7ComplexEONSt16remove_referenceIT_E4typeEOS4_
FN:104,_ZSt4moveIRN9__gnu_cxx5__ops15_Iter_comp_iterISt7greaterI7ComplexEEEEONSt16remove_referenceIT_E4typeEOS9_
FNDA:2,_ZSt4moveIRN9__gnu_cxx5__ops15_Iter_comp_iterISt7greaterI7ComplexEEEEONSt16remove_referenceIT_E4typeEOS9_
FN:104,_ZSt4moveIR7ComplexEONSt16remove_referenceIT_E4typeEOS3_
FNDA:21,_ZSt4moveIR7ComplexEONSt16remove_referenceIT_E4typeEOS3_
FN:104,_ZSt4moveIRPPN5ariel4TreeI7ComplexLm2EE4NodeEEONSt16remove_referenceIT_E4typeEOS9_
FNDA:22,_ZSt4moveIRPPN5ariel4TreeI7ComplexLm2EE4NodeEEONSt16remove_referenceIT_E4typeEOS9_
FN:104,_ZSt4moveIRSt7greaterI7ComplexEEONSt16remove_referenceIT_E4typeEOS5_
FNDA:4,_ZSt4moveIRSt7greaterI7ComplexEEONSt16remove_referenceIT_E4typeEOS5_
FN:145,_ZSt9addressofIKjEPT_RS1_
FNDA:12881,_ZSt9addressofIKjEPT_RS1_
DA:49,21
DA:50,21
DA:49,12881
DA:50,12881
DA:77,14
DA:78,14
DA:77,33
DA:78,33
DA:77,30
DA:78,30
DA:77,14
DA:78,14
DA:104,0
DA:105,0
DA:104,2
DA:105,2
DA:104,21
DA:105,21
DA:104,22
DA:105,22
DA:104,4
DA:105,4
DA:145,12881
DA:146,12881
end_of_record
SF:/usr/include/c++/11/bits/basic_string.tcc
FN:206,_ZNSt7__cxx1112basic_stringIcSt11char_traitsIcESaIcEE12_M_constructIPKcEEvT_S8_St20forward_iterator_tag
FNDA:0,_ZNSt7__cxx1112basic_stringIcSt11char_traitsIcESaIcEE12_M_constructIPKcEEvT_S8_St20forward_iterator_tag
DA:206,0
DA:211,0
DA:212,0
DA:215,0
DA:217,0
DA:219,0
DA:220,0
DA:225,0
DA:226,0
DA:228,0
DA:229,0
DA:232,0
DA:233,0
end_of_record
SF:/usr/include/c++/11/bits/char_traits.h
FN:393,_ZNSt11char_traitsIcE6lengthEPKc
FNDA:0,_ZNSt11char_traitsIcE6lengthEPKc
DA:393,0
DA:399,0
end_of_record
SF:/usr/include/c++/11/bits/stl_construct.h
FN:109,_ZSt10_ConstructI7ComplexJS0_EEvPT_DpOT0_
FNDA:0,_ZSt10_ConstructI7ComplexJS0_EEvPT_DpOT0_
FN:172,_ZNSt12_Destroy_auxILb1EE9__destroyIPN2sf6VertexEEEvT_S5_
FNDA:12880,_ZNSt12_Destroy_auxILb1EE9__destroyIPN2sf6VertexEEEvT_S5_
FN:172,_ZNSt12_Destroy_auxILb1EE9__destroyIP7ComplexEEvT_S4_
FNDA:1,_ZNSt12_Destroy_auxILb1EE9__destroyIP7ComplexEEvT_S4_
FN:182,_ZSt8_DestroyIPN2sf6VertexEEvT_S3_
FNDA:12880,_ZSt8_DestroyIPN2sf6VertexEEvT_S3_
FN:182,_ZSt8_DestroyIP7ComplexEvT_S2_
FNDA:1,_ZSt8_DestroyIP7ComplexEvT_S2_
DA:109,0
DA:119,0
DA:120,0
DA:172,12880
DA:172,1
DA:182,12880
DA:196,12880
DA:197,12880
DA:182,1
DA:196,1
DA:197,1
end_of_record
SF:/usr/include/c++/11/bits/stl_function.h
FN:389,_ZNKSt7greaterI7ComplexEclERKS0_S3_
FNDA:6,_ZNKSt7greaterI7ComplexEclERKS0_S3_
DA:389,6
DA:390,6
end_of_record
SF:/usr/include/c++/11/bits/stl_iterator.h
FN:1027,_ZN9__gnu_cxx17__normal_iteratorIP7ComplexSt6vectorIS1_SaIS1_EEEC2ERKS2_
FNDA:37,_ZN9__gnu_cxx17__normal_iteratorIP7ComplexSt6vectorIS1_SaIS1_EEEC2ERKS2_
FN:1042,_ZNK9__gnu_cxx17__normal_iteratorIP7ComplexSt6vectorIS1_SaIS1_EEEdeEv
FNDA:30,_ZNK9__gnu_cxx17__normal_iteratorIP7ComplexSt6vectorIS1_SaIS1_EEEdeEv
FN:1052,_ZN9__gnu_cxx17__normal_iteratorIP7ComplexSt6vectorIS1_SaIS1_EEEppEv
FNDA:5,_ZN9__gnu_cxx17__normal_iteratorIP7ComplexSt6vectorIS1_SaIS1_EEEppEv
FN:1090,_ZNK9__gnu_cxx17__normal_iteratorIP7ComplexSt6vectorIS1_SaIS1_EEEplEl
FNDA:25,_ZNK9__gnu_cxx17__normal_iteratorIP7ComplexSt6vectorIS1_SaIS1_EEEplEl
FN:1105,_ZNK9__gnu_cxx17__normal_iteratorIP7ComplexSt6vectorIS1_SaIS1_EEE4baseEv
FNDA:32,_ZNK9__gnu_cxx17__normal_iteratorIP7ComplexSt6vectorIS1_SaIS1_EEE4baseEv
FN:1179,_ZN9__gnu_cxxneIP7ComplexSt6vectorIS1_SaIS1_EEEEbRKNS_17__normal_iteratorIT_T0_EESB_
FNDA:6,_ZN9__gnu_cxxneIP7ComplexSt6vectorIS1_SaIS1_EEEEbRKNS_17__normal_iteratorIT_T0_EESB_
FN:1268,_ZN9__gnu_cxxmiIP7ComplexSt6vectorIS1_SaIS1_EEEENS_17__normal_iteratorIT_T0_E15difference_typeERKS9_SC_
FNDA:6,_ZN9__gnu_cxxmiIP7ComplexSt6vectorIS1_SaIS1_EEEENS_17__normal_iteratorIT_T0_E15difference_typeERKS9_SC_
FN:1439,_ZNSt13move_iteratorIP7ComplexEC2ES1_
FNDA:0,_ZNSt13move_iteratorIP7ComplexEC2ES1_
FN:1464,_ZNKSt13move_iteratorIP7ComplexE4baseEv
FNDA:0,_ZNKSt13move_iteratorIP7ComplexE4baseEv
FN:1477,_ZNKSt13move_iteratorIP7ComplexEdeEv
FNDA:0,_ZNKSt13move_iteratorIP7ComplexEdeEv
FN:1489,_ZNSt13move_iteratorIP7ComplexEppEv
FNDA:0,_ZNSt13move_iteratorIP7ComplexEppEv
FN:1648,_ZSteqIP7ComplexEbRKSt13move_iteratorIT_ES6_
FNDA:0,_ZSteqIP7ComplexEbRKSt13move_iteratorIT_ES6_
FN:1661,_ZStneIP7ComplexEbRKSt13move_iteratorIT_ES6_
FNDA:0,_ZStneIP7ComplexEbRKSt13move_iteratorIT_ES6_
FN:1723,_ZSt32__make_move_if_noexcept_iteratorI7ComplexSt13move_iteratorIPS0_EET0_PT_
FNDA:0,_ZSt32__make_move_if_noexcept_iteratorI7ComplexSt13move_iteratorIPS0_EET0_PT_
DA:1027,37
DA:1028,37
DA:1042,30
DA:1043,30
DA:1052,5
DA:1054,5
DA:1055,5
DA:1090,25
DA:1091,25
DA:1105,32
DA:1106,32
DA:1179,6
DA:1182,6
DA:1268,6
DA:1271,6
DA:1439,0
DA:1440,0
DA:1464,0
DA:1465,0
DA:1477,0
DA:1481,0
DA:1489,0
DA:1491,0
DA:1492,0
DA:1648,0
DA:1650,0
DA:1661,0
DA:1663,0
DA:1723,0
DA:1724,0
end_of_record
SF:/usr/include/c++/11/bits/stl_heap.h
FN:134,_ZSt11__push_heapIN9__gnu_cxx17__normal_iteratorIP7ComplexSt6vectorIS2_SaIS2_EEEElS2_NS0_5__ops14_Iter_comp_valISt7greaterIS2_EEEEvT_T0_SE_T1_RT2_
FNDA:2,_ZSt11__push_heapIN9__gnu_cxx17__normal_iteratorIP7ComplexSt6vectorIS2_SaIS2_EEEElS2_NS0_5__ops14_Iter_comp_valISt7greaterIS2_EEEEvT_T0_SE_T1_RT2_
FN:223,_ZSt13__adjust_heapIN9__gnu_cxx17__normal_iteratorIP7ComplexSt6vectorIS2_SaIS2_EEEElS2_NS0_5__ops15_Iter_comp_iterISt7greaterIS2_EEEEvT_T0_SE_T1_T2_
FNDA:2,_ZSt13__adjust_heapIN9__gnu_cxx17__normal_iteratorIP7ComplexSt6vectorIS2_SaIS2_EEEElS2_NS0_5__ops15_Iter_comp_iterISt7greaterIS2_EEEEvT_T0_SE_T1_T2_
FN:339,_ZSt11__make_heapIN9__gnu_cxx17__normal_iteratorIP7ComplexSt6vectorIS2_SaIS2_EEEENS0_5__ops15_Iter_comp_iterISt7greaterIS2_EEEEvT_SD_RT0_
FNDA:1,_ZSt11__make_heapIN9__gnu_cxx17__normal_iteratorIP7ComplexSt6vectorIS2_SaIS2_EEEENS0_5__ops15_Iter_comp_iterISt7greaterIS2_EEEEvT_SD_RT0_
FN:401,_ZSt9make_heapIN9__gnu_cxx17__normal_iteratorIP7ComplexSt6vectorIS2_SaIS2_EEEESt7greaterIS2_EEvT_SA_T0_
FNDA:1,_ZSt9make_heapIN9__gnu_cxx17__normal_iteratorIP7ComplexSt6vectorIS2_SaIS2_EEEESt7greaterIS2_EEvT_SA_T0_
DA:134,2
DA:138,2
DA:139,5
DA:141,3
DA:142,3
DA:143,3
DA:145,2
DA:146,2
DA:223,2
DA:226,2
DA:227,2
DA:228,5
DA:230,3
DA:231,3
DA:233,3
DA:234,3
DA:235,3
DA:237,2
DA:239,0
DA:240,0
DA:242,0
DA:245,2
DA:246,2
DA:247,2
DA:248,2
DA:339,1
DA:347,1
DA:348,0
DA:350,1
DA:351,1
DA:352,1
DA:354,2
DA:355,2
DA:357,2
DA:358,1
DA:359,1
DA:401,1
DA:411,1
DA:412,1
DA:413,1
end_of_record
SF:/usr/include/c++/11/ext/new_allocator.h
FN:79,_ZN9__gnu_cxx13new_allocatorIPPN5ariel4TreeI7ComplexLm2EE4NodeEEC2Ev
FNDA:31,_ZN9__gnu_cxx13new_allocatorIPPN5ariel4TreeI7ComplexLm2EE4NodeEEC2Ev
FN:79,_ZN9__gnu_cxx13new_allocatorIcEC2Ev
FNDA:0,_ZN9__gnu_cxx13new_allocatorIcEC2Ev
FN:79,_ZN9__gnu_cxx13new_allocatorI7ComplexEC2Ev
FNDA:1,_ZN9__gnu_cxx13new_allocatorI7ComplexEC2Ev
FN:79,_ZN9__gnu_cxx13new_allocatorIPN5ariel4TreeI7ComplexLm2EE4NodeEEC2Ev
FNDA:15,_ZN9__gnu_cxx13new_allocatorIPN5ariel4TreeI7ComplexLm2EE4NodeEEC2Ev
FN:79,_ZN9__gnu_cxx13new_allocatorIPPPN5ariel4TreeI7ComplexLm2EE4NodeEEC2Ev
FNDA:2,_ZN9__gnu_cxx13new_allocatorIPPPN5ariel4TreeI7ComplexLm2EE4NodeEEC2Ev
FN:89,_ZN9__gnu_cxx13new_allocatorIcED2Ev
FNDA:0,_ZN9__gnu_cxx13new_allocatorIcED2Ev
FN:89,_ZN9__gnu_cxx13new_allocatorIN2sf6VertexEED2Ev
FNDA:12880,_ZN9__gnu_cxx13new_allocatorIN2sf6VertexEED2Ev
FN:89,_ZN9__gnu_cxx13new_allocatorIPPN5ariel4TreeI7ComplexLm2EE4NodeEED2Ev
FNDA:31,_ZN9__gnu_cxx13new_allocatorIPPN5ariel4TreeI7ComplexLm2EE4NodeEED2Ev
FN:89,_ZN9__gnu_cxx13new_allocatorIPPPN5ariel4TreeI7ComplexLm2EE4NodeEED2Ev
FNDA:2,_ZN9__gnu_cxx13new_allocatorIPPPN5ariel4TreeI7ComplexLm2EE4NodeEED2Ev
FN:89,_ZN9__gnu_cxx13new_allocatorIPN5ariel4TreeI7ComplexLm2EE4NodeEED2Ev
FNDA:15,_ZN9__gnu_cxx13new_allocatorIPN5ariel4TreeI7ComplexLm2EE4NodeEED2Ev
FN:89,_ZN9__gnu_cxx13new_allocatorI7ComplexED2Ev
FNDA:1,_ZN9__gnu_cxx13new_allocatorI7ComplexED2Ev
FN:89,_ZN9__gnu_cxx13new_allocatorIjED2Ev
FNDA:12881,_ZN9__gnu_cxx13new_allocatorIjED2Ev
FN:103,_ZN9__gnu_cxx13new_allocatorIPN5ariel4TreeI7ComplexLm2EE4NodeEE8allocateEmPKv
FNDA:15,_ZN9__gnu_cxx13new_allocatorIPN5ariel4TreeI7ComplexLm2EE4NodeEE8allocateEmPKv
FN:103,_ZN9__gnu_cxx13new_allocatorI7ComplexE8allocateEmPKv
FNDA:4,_ZN9__gnu_cxx13new_allocatorI7ComplexE8allocateEmPKv
FN:103,_ZN9__gnu_cxx13new_allocatorIPPPN5ariel4TreeI7ComplexLm2EE4NodeEE8allocateEmPKv
FNDA:1,_ZN9__gnu_cxx13new_allocatorIPPPN5ariel4TreeI7ComplexLm2EE4NodeEE8allocateEmPKv
FN:103,_ZN9__gnu_cxx13new_allocatorIPPN5ariel4TreeI7ComplexLm2EE4NodeEE8allocateEmPKv
FNDA:16,_ZN9__gnu_cxx13new_allocatorIPPN5ariel4TreeI7ComplexLm2EE4NodeEE8allocateEmPKv
FN:132,_ZN9__gnu_cxx13new_allocatorIN2sf6VertexEE10deallocateEPS2_m
FNDA:6440,_ZN9__gnu_cxx13new_allocatorIN2sf6VertexEE10deallocateEPS2_m
FN:132,_ZN9__gnu_cxx13new_allocatorIPPPN5ariel4TreeI7ComplexLm2EE4NodeEE10deallocateEPS8_m
FNDA:1,_ZN9__gnu_cxx13new_allocatorIPPPN5ariel4TreeI7ComplexLm2EE4NodeEE10deallocateEPS8_m
FN:132,_ZN9__gnu_cxx13new_allocatorIPPN5ariel4TreeI7ComplexLm2EE4NodeEE10deallocateEPS7_m
FNDA:16,_ZN9__gnu_cxx13new_allocatorIPPN5ariel4TreeI7ComplexLm2EE4NodeEE10deallocateEPS7_m
FN:132,_ZN9__gnu_cxx13new_allocatorIPN5ariel4TreeI7ComplexLm2EE4NodeEE10deallocateEPS6_m
FNDA:15,_ZN9__gnu_cxx13new_allocatorIPN5ariel4TreeI7ComplexLm2EE4NodeEE10deallocateEPS6_m
FN:132,_ZN9__gnu_cxx13new_allocatorIjE10deallocateEPjm
FNDA:12881,_ZN9__gnu_cxx13new_allocatorIjE10deallocateEPjm
FN:132,_ZN9__gnu_cxx13new_allocatorI7ComplexE10deallocateEPS1_m
FNDA:4,_ZN9__gnu_cxx13new_allocatorI7ComplexE10deallocateEPS1_m
FN:154,_ZNK9__gnu_cxx13new_allocatorIPPN5ariel4TreeI7ComplexLm2EE4NodeEE8max_sizeEv
FNDA:0,_ZNK9__gnu_cxx13new_allocatorIPPN5ariel4TreeI7ComplexLm2EE4NodeEE8max_sizeEv
FN:154,_ZNK9__gnu_cxx13new_allocatorI7ComplexE8max_sizeEv
FNDA:8,_ZNK9__gnu_cxx13new_allocatorI7ComplexE8max_sizeEv
FN:154,_ZNK9__gnu_cxx13new_allocatorIPN5ariel4TreeI7ComplexLm2EE4NodeEE8max_sizeEv
FNDA:0,_ZNK9__gnu_cxx13new_allocatorIPN5ariel4TreeI7ComplexLm2EE4NodeEE8max_sizeEv
FN:160,_ZN9__gnu_cxx13new_allocatorIPN5ariel4TreeI7ComplexLm2EE4NodeEE9constructIS6_JRKS6_EEEvPT_DpOT0_
FNDA:15,_ZN9__gnu_cxx13new_allocatorIPN5ariel4TreeI7ComplexLm2EE4NodeEE9constructIS6_JRKS6_EEEvPT_DpOT0_
FN:160,_ZN9__gnu_cxx13new_allocatorI7ComplexE9constructIS1_JS1_EEEvPT_DpOT0_
FNDA:7,_ZN9__gnu_cxx13new_allocatorI7ComplexE9constructIS1_JS1_EEEvPT_DpOT0_
FN:160,_ZN9__gnu_cxx13new_allocatorI7ComplexE9constructIS1_JRKS1_EEEvPT_DpOT0_
FNDA:5,_ZN9__gnu_cxx13new_allocatorI7ComplexE9constructIS1_JRKS1_EEEvPT_DpOT0_
FN:160,_ZN9__gnu_cxx13new_allocatorIPPN5ariel4TreeI7ComplexLm2EE4NodeEE9constructIS7_JS7_EEEvPT_DpOT0_
FNDA:11,_ZN9__gnu_cxx13new_allocatorIPPN5ariel4TreeI7ComplexLm2EE4NodeEE9constructIS7_JS7_EEEvPT_DpOT0_
FN:166,_ZN9__gnu_cxx13new_allocatorIPN5ariel4TreeI7ComplexLm2EE4NodeEE7destroyIS6_EEvPT_
FNDA:15,_ZN9__gnu_cxx13new_allocatorIPN5ariel4TreeI7ComplexLm2EE4NodeEE7destroyIS6_EEvPT_
FN:166,_ZN9__gnu_cxx13new_allocatorI7ComplexE7destroyIS1_EEvPT_
FNDA:7,_ZN9__gnu_cxx13new_allocatorI7ComplexE7destroyIS1_EEvPT_
FN:166,_ZN9__gnu_cxx13new_allocatorIPPN5ariel4TreeI7ComplexLm2EE4NodeEE7destroyIS7_EEvPT_
FNDA:5,_ZN9__gnu_cxx13new_allocatorIPPN5ariel4TreeI7ComplexLm2EE4NodeEE7destroyIS7_EEvPT_
FN:197,_ZNK9__gnu_cxx13new_allocatorIPPPN5ariel4TreeI7ComplexLm2EE4NodeEE11_M_max_sizeEv
FNDA:1,_ZNK9__gnu_cxx13new_allocatorIPPPN5ariel4TreeI7ComplexLm2EE4NodeEE11_M_max_sizeEv
FN:197,_ZNK9__gnu_cxx13new_allocatorIPPN5ariel4TreeI7ComplexLm2EE4NodeEE11_M_max_sizeEv
FNDA:16,_ZNK9__gnu_cxx13new_allocatorIPPN5ariel4TreeI7ComplexLm2EE4NodeEE11_M_max_sizeEv
FN:197,_ZNK9__gnu_cxx13new_allocatorI7ComplexE11_M_max_sizeEv
FNDA:12,_ZNK9__gnu_cxx13new_allocatorI7ComplexE11_M_max_sizeEv
FN:197,_ZNK9__gnu_cxx13new_allocatorIPN5ariel4TreeI7ComplexLm2EE4NodeEE11_M_max_sizeEv
FNDA:15,_ZNK9__gnu_cxx13new_allocatorIPN5ariel4TreeI7ComplexLm2EE4NodeEE11_M_max_sizeEv
DA:79,2
DA:79,15
DA:79,31
DA:79,1
DA:79,0
DA:89,2
DA:89,12880
DA:89,31
DA:89,15
DA:89,1
DA:89,12881
DA:89,0
DA:103,1
DA:111,1
DA:115,0
DA:116,0
DA:117,0
DA:127,1
DA:103,15
DA:111,15
DA:115,0
DA:116,0
DA:117,0
DA:127,15
DA:103,4
DA:111,4
DA:115,0
DA:116,0
DA:117,0
DA:127,4
DA:103,16
DA:111,16
DA:115,0
DA:116,0
DA:117,0
DA:127,16
DA:132,6440
DA:145,6440
DA:150,6440
DA:132,1
DA:145,1
DA:150,1
DA:132,15
DA:145,15
DA:150,15
DA:132,4
DA:145,4
DA:150,4
DA:132,12881
DA:145,12881
DA:150,12881
DA:132,16
DA:145,16
DA:150,16
DA:154,0
DA:155,0
DA:154,8
DA:155,8
DA:154,0
DA:155,0
DA:160,7
DA:162,7
DA:160,11
DA:162,11
DA:160,15
DA:162,15
DA:160,5
DA:162,5
DA:166,5
DA:168,5
DA:166,7
DA:168,7
DA:166,15
DA:168,15
DA:197,1
DA:200,1
DA:197,15
DA:200,15
DA:197,12
DA:200,12
DA:197,16
DA:200,16
end_of_record
SF:/usr/include/c++/11/bits/stl_queue.h
FN:166,_ZNSt5queueIPPN5ariel4TreeI7ComplexLm2EE4NodeESt5dequeIS6_SaIS6_EEEC2IS9_vEEv
FNDA:1,_ZNSt5queueIPPN5ariel4TreeI7ComplexLm2EE4NodeESt5dequeIS6_SaIS6_EEEC2IS9_vEEv
FN:166,_ZNSt5queueIPN5ariel4TreeI7ComplexLm2EE4NodeESt5dequeIS5_SaIS5_EEEC2IS8_vEEv
FNDA:15,_ZNSt5queueIPN5ariel4TreeI7ComplexLm2EE4NodeESt5dequeIS5_SaIS5_EEEC2IS8_vEEv
FN:203,_ZNKSt5queueIPN5ariel4TreeI7ComplexLm2EE4NodeESt5dequeIS5_SaIS5_EEE5emptyEv
FNDA:18,_ZNKSt5queueIPN5ariel4TreeI7ComplexLm2EE4NodeESt5dequeIS5_SaIS5_EEE5emptyEv
FN:216,_ZNSt5queueIPPN5ariel4TreeI7ComplexLm2EE4NodeESt5dequeIS6_SaIS6_EEE5frontEv
FNDA:5,_ZNSt5queueIPPN5ariel4TreeI7ComplexLm2EE4NodeESt5dequeIS6_SaIS6_EEE5frontEv
FN:216,_ZNSt5queueIPN5ariel4TreeI7ComplexLm2EE4NodeESt5dequeIS5_SaIS5_EEE5frontEv
FNDA:15,_ZNSt5queueIPN5ariel4TreeI7ComplexLm2EE4NodeESt5dequeIS5_SaIS5_EEE5frontEv
FN:227,_ZNKSt5queueIPN5ariel4TreeI7ComplexLm2EE4NodeESt5dequeIS5_SaIS5_EEE5frontEv
FNDA:10,_ZNKSt5queueIPN5ariel4TreeI7ComplexLm2EE4NodeESt5dequeIS5_SaIS5_EEE5frontEv
FN:265,_ZNSt5queueIPN5ariel4TreeI7ComplexLm2EE4NodeESt5dequeIS5_SaIS5_EEE4pushERKS5_
FNDA:15,_ZNSt5queueIPN5ariel4TreeI7ComplexLm2EE4NodeESt5dequeIS5_SaIS5_EEE4pushERKS5_
FN:270,_ZNSt5queueIPPN5ariel4TreeI7ComplexLm2EE4NodeESt5dequeIS6_SaIS6_EEE4pushEOS6_
FNDA:11,_ZNSt5queueIPPN5ariel4TreeI7ComplexLm2EE4NodeESt5dequeIS6_SaIS6_EEE4pushEOS6_
FN:298,_ZNSt5queueIPPN5ariel4TreeI7ComplexLm2EE4NodeESt5dequeIS6_SaIS6_EEE3popEv
FNDA:5,_ZNSt5queueIPPN5ariel4TreeI7ComplexLm2EE4NodeESt5dequeIS6_SaIS6_EEE3popEv
FN:298,_ZNSt5queueIPN5ariel4TreeI7ComplexLm2EE4NodeESt5dequeIS5_SaIS5_EEE3popEv
FNDA:15,_ZNSt5queueIPN5ariel4TreeI7ComplexLm2EE4NodeESt5dequeIS5_SaIS5_EEE3popEv
DA:166,1
DA:167,1
DA:166,15
DA:167,15
DA:203,18
DA:204,18
DA:216,5
DA:219,5
DA:216,15
DA:219,15
DA:227,10
DA:230,10
DA:265,15
DA:266,15
DA:270,11
DA:271,11
DA:298,5
DA:301,5
DA:302,5
DA:298,15
DA:301,15
DA:302,15
end_of_record
SF:/home/ag/Studying/SemsterB/System Programming/EX4/Tree.cpp
FN:15,_ZN5ariel4TreeI7ComplexLm2EEC2Ev
FNDA:1,_ZN5ariel4TreeI7ComplexLm2EEC2Ev
FN:18,_ZN5ariel4TreeI7ComplexLm2EED2Ev
FNDA:1,_ZN5ariel4TreeI7ComplexLm2EED2Ev
FN:23,_ZN5ariel4TreeI7ComplexLm2EE8add_rootERKS1_
FNDA:1,_ZN5ariel4TreeI7ComplexLm2EE8add_rootERKS1_
FN:32,_ZN5ariel4TreeI7ComplexLm2EE12add_sub_nodeEPNS2_4NodeERKS1_
FNDA:4,_ZN5ariel4TreeI7ComplexLm2EE12add_sub_nodeEPNS2_4NodeERKS1_
FN:50,_ZNK5ariel4TreeI7ComplexLm2EE8get_rootEv
FNDA:1,_ZNK5ariel4TreeI7ComplexLm2EE8get_rootEv
FN:55,_ZNK5ariel4TreeI7ComplexLm2EE4drawERN2sf12RenderWindowE
FNDA:1288,_ZNK5ariel4TreeI7ComplexLm2EE4drawERN2sf12RenderWindowE
FN:74,_ZN5ariel4TreeI7ComplexLm2EE5clearEPNS2_4NodeE
FNDA:11,_ZN5ariel4TreeI7ComplexLm2EE5clearEPNS2_4NodeE
FN:83,_ZNK5ariel4TreeI7ComplexLm2EE8drawNodeERN2sf12RenderWindowEPNS2_4NodeENS3_7Vector2IfEEffi
FNDA:6440,_ZNK5ariel4TreeI7ComplexLm2EE8drawNodeERN2sf12RenderWindowEPNS2_4NodeENS3_7Vector2IfEEffi
FN:129,_ZNK5ariel4TreeI7ComplexLm2EE9drawArrowERN2sf12RenderWindowENS3_7Vector2IfEES7_
FNDA:5152,_ZNK5ariel4TreeI7ComplexLm2EE9drawArrowERN2sf12RenderWindowENS3_7Vector2IfEES7_
FN:160,_ZN5ariel4TreeI7ComplexLm2EE9begin_bfsEv
FNDA:2,_ZN5ariel4TreeI7ComplexLm2EE9begin_bfsEv
FN:165,_ZN5ariel4TreeI7ComplexLm2EE7end_bfsEv
FNDA:12,_ZN5ariel4TreeI7ComplexLm2EE7end_bfsEv
FN:210,_ZN5ariel4TreeI7ComplexLm2EE6myHeapEv
FNDA:1,_ZN5ariel4TreeI7ComplexLm2EE6myHeapEv
FN:252,_ZN5ariel4TreeI7ComplexLm2EE11BFSIteratorC2EPNS2_4NodeE
FNDA:14,_ZN5ariel4TreeI7ComplexLm2EE11BFSIteratorC2EPNS2_4NodeE
FN:260,_ZNK5ariel4TreeI7ComplexLm2EE11BFSIteratorneERKS3_
FNDA:12,_ZNK5ariel4TreeI7ComplexLm2EE11BFSIteratorneERKS3_
FN:265,_ZNK5ariel4TreeI7ComplexLm2EE11BFSIteratordeEv
FNDA:10,_ZNK5ariel4TreeI7ComplexLm2EE11BFSIteratordeEv
FN:270,_ZN5ariel4TreeI7ComplexLm2EE11BFSIteratorppEv
FNDA:10,_ZN5ariel4TreeI7ComplexLm2EE11BFSIteratorppEv
DA:15,1
DA:18,1
DA:19,1
DA:20,1
DA:23,1
DA:24,1
DA:25,1
DA:27,0
DA:29,1
DA:32,4
DA:33,4
DA:35,6
DA:36,6
DA:37,4
DA:38,4
DA:41,0
DA:50,1
DA:51,1
DA:55,1288
DA:57,1288
DA:58,1288
DA:59,1288
DA:61,1288
DA:74,11
DA:75,11
DA:76,15
DA:77,10
DA:79,5
DA:83,6440
DA:85,6440
DA:87,6440
DA:88,6440
DA:89,6440
DA:90,6440
DA:92,6440
DA:93,6440
DA:94,0
DA:96,6440
DA:97,6440
DA:100,6440
DA:101,6440
DA:102,6440
DA:105,6440
DA:106,6440
DA:107,6440
DA:108,6440
DA:110,6440
DA:111,6440
DA:114,19320
DA:115,12880
DA:116,5152
DA:117,5152
DA:118,5152
DA:121,5152
DA:122,5152
DA:126,6440
DA:129,5152
DA:132,5152
DA:136,5152
DA:139,5152
DA:140,5152
DA:141,5152
DA:144,5152
DA:147,5152
DA:148,5152
DA:150,5152
DA:156,5152
DA:157,5152
DA:160,2
DA:161,2
DA:165,12
DA:166,12
DA:210,1
DA:217,1
DA:218,1
DA:219,1
DA:220,1
DA:222,6
DA:223,5
DA:224,5
DA:225,5
DA:226,15
DA:227,10
DA:228,4
DA:234,1
DA:237,1
DA:238,1
DA:239,6
DA:240,5
DA:241,5
DA:242,5
DA:243,5
DA:244,5
DA:247,2
DA:248,1
DA:252,14
DA:253,14
DA:254,2
DA:256,14
DA:260,12
DA:261,12
DA:265,10
DA:266,10
DA:270,10
DA:271,10
DA:272,10
DA:273,30
DA:274,20
DA:275,8
DA:278,10
end_of_record
SF:/usr/include/c++/11/bits/predefined_ops.h
FN:150,_ZN9__gnu_cxx5__ops15_Iter_comp_iterISt7greaterI7ComplexEEC2ES4_
FNDA:1,_ZN9__gnu_cxx5__ops15_Iter_comp_iterISt7greaterI7ComplexEEC2ES4_
FN:157,_ZN9__gnu_cxx5__ops15_Iter_comp_iterISt7greaterI7ComplexEEclINS_17__normal_iteratorIPS3_St6vectorIS3_SaIS3_EEEESC_EEbT_T0_
FNDA:3,_ZN9__gnu_cxx5__ops15_Iter_comp_iterISt7greaterI7ComplexEEclINS_17__normal_iteratorIPS3_St6vectorIS3_SaIS3_EEEESC_EEbT_T0_
FN:187,_ZN9__gnu_cxx5__ops14_Iter_comp_valISt7greaterI7ComplexEEC2EONS0_15_Iter_comp_iterIS4_EE
FNDA:2,_ZN9__gnu_cxx5__ops14_Iter_comp_valISt7greaterI7ComplexEEC2EONS0_15_Iter_comp_iterIS4_EE
FN:195,_ZN9__gnu_cxx5__ops14_Iter_comp_valISt7greaterI7ComplexEEclINS_17__normal_iteratorIPS3_St6vectorIS3_SaIS3_EEEES3_EEbT_RT0_
FNDA:3,_ZN9__gnu_cxx5__ops14_Iter_comp_valISt7greaterI7ComplexEEclINS_17__normal_iteratorIPS3_St6vectorIS3_SaIS3_EEEES3_EEbT_RT0_
DA:150,1
DA:151,1
DA:152,1
DA:157,3
DA:158,3
DA:187,2
DA:188,2
DA:189,2
DA:195,3
DA:196,3
end_of_record
SF:/usr/include/SFML/System/String.hpp
end_of_record
SF:/usr/include/c++/11/bits/cpp_type_traits.h
FN:560,_ZSt12__miter_baseIPPPPN5ariel4TreeI7ComplexLm2EE4NodeEET_S9_
FNDA:0,_ZSt12__miter_baseIPPPPN5ariel4TreeI7ComplexLm2EE4NodeEET_S9_
FN:560,_ZSt12__miter_baseIPPPN5ariel4TreeI7ComplexLm2EE4NodeEET_S8_
FNDA:0,_ZSt12__miter_baseIPPPN5ariel4TreeI7ComplexLm2EE4NodeEET_S8_
DA:560,0
DA:561,0
DA:560,0
DA:561,0
end_of_record
SF:/usr/include/c++/11/bits/stl_iterator_base_funcs.h
FN:98,_ZSt10__distanceIPKcENSt15iterator_traitsIT_E15difference_typeES3_S3_St26random_access_iterator_tag
FNDA:0,_ZSt10__distanceIPKcENSt15iterator_traitsIT_E15difference_typeES3_S3_St26random_access_iterator_tag
FN:138,_ZSt8distanceIPKcENSt15iterator_traitsIT_E15difference_typeES3_S3_
FNDA:0,_ZSt8distanceIPKcENSt15iterator_traitsIT_E15difference_typeES3_S3_
DA:98,0
DA:104,0
DA:138,0
DA:141,0
DA:142,0
end_of_record
SF:/usr/include/c++/11/cmath
FN:463,_ZSt4sqrtf
FNDA:5152,_ZSt4sqrtf
DA:463,5152
DA:464,5152
end_of_record
SF:/usr/include/c++/11/bits/vector.tcc
FN:426,_ZNSt6vectorI7ComplexSaIS0_EE17_M_realloc_insertIJRKS0_EEEvN9__gnu_cxx17__normal_iteratorIPS0_S2_EEDpOT_
FNDA:4,_ZNSt6vectorI7ComplexSaIS0_EE17_M_realloc_insertIJRKS0_EEEvN9__gnu_cxx17__normal_iteratorIPS0_S2_EEDpOT_
DA:426,4
DA:436,4
DA:437,4
DA:438,4
DA:439,4
DA:440,4
DA:441,4
DA:449,4
DA:450,4
DA:456,4
DA:459,4
DA:461,4
DA:462,4
DA:464,4
DA:466,4
DA:467,4
DA:474,0
DA:475,0
DA:477,0
DA:481,0
DA:482,0
DA:485,0
DA:487,0
DA:488,0
DA:489,0
DA:491,0
DA:492,0
DA:493,0
DA:496,4
DA:498,0
DA:500,4
DA:501,4
DA:502,4
DA:503,4
DA:504,4
DA:505,4
end_of_record
SF:/usr/include/SFML/Graphics/VertexArray.hpp
end_of_record
SF:/usr/include/c++/11/bits/basic_string.h
FN:194,_ZNKSt7__cxx1112basic_stringIjSt11char_traitsIjESaIjEE7_M_dataEv
FNDA:25762,_ZNKSt7__cxx1112basic_stringIjSt11char_traitsIjESaIjEE7_M_dataEv
FN:208,_ZNKSt7__cxx1112basic_stringIjSt11char_traitsIjESaIjEE13_M_local_dataEv
FNDA:12881,_ZNKSt7__cxx1112basic_stringIjSt11char_traitsIjESaIjEE13_M_local_dataEv
FN:229,_ZNKSt7__cxx1112basic_stringIjSt11char_traitsIjESaIjEE11_M_is_localEv
FNDA:12881,_ZNKSt7__cxx1112basic_stringIjSt11char_traitsIjESaIjEE11_M_is_localEv
FN:237,_ZNSt7__cxx1112basic_stringIjSt11char_traitsIjESaIjEE10_M_disposeEv
FNDA:12881,_ZNSt7__cxx1112basic_stringIjSt11char_traitsIjESaIjEE10_M_disposeEv
FN:244,_ZNSt7__cxx1112basic_stringIjSt11char_traitsIjESaIjEE10_M_destroyEm
FNDA:12881,_ZNSt7__cxx1112basic_stringIjSt11char_traitsIjESaIjEE10_M_destroyEm
FN:294,_ZNSt7__cxx1112basic_stringIjSt11char_traitsIjESaIjEE16_M_get_allocatorEv
FNDA:12881,_ZNSt7__cxx1112basic_stringIjSt11char_traitsIjESaIjEE16_M_get_allocatorEv
FN:671,_ZNSt7__cxx1112basic_stringIjSt11char_traitsIjESaIjEED2Ev
FNDA:12881,_ZNSt7__cxx1112basic_stringIjSt11char_traitsIjESaIjEED2Ev
DA:194,25762
DA:195,25762
DA:208,12881
DA:211,12881
DA:229,12881
DA:230,12881
DA:237,12881
DA:239,12881
DA:240,12881
DA:241,12881
DA:244,0
DA:245,12881
DA:294,12881
DA:295,12881
DA:671,12881
DA:672,12881
end_of_record
SF:/usr/include/c++/11/bits/stl_iterator_base_types.h
FN:238,_ZSt19__iterator_categoryIPKcENSt15iterator_traitsIT_E17iterator_categoryERKS3_
FNDA:0,_ZSt19__iterator_categoryIPKcENSt15iterator_traitsIT_E17iterator_categoryERKS3_
DA:238,0
DA:239,0
end_of_record
SF:/usr/include/c++/11/bits/stl_algobase.h
FN:230,_ZSt3minImERKT_S2_S2_
FNDA:8,_ZSt3minImERKT_S2_S2_
FN:254,_ZSt3maxImERKT_S2_S2_
FNDA:20,_ZSt3maxImERKT_S2_S2_
FN:313,_ZSt12__niter_baseIP7ComplexET_S2_
FNDA:24,_ZSt12__niter_baseIP7ComplexET_S2_
FN:313,_ZSt12__niter_baseIPPPN5ariel4TreeI7ComplexLm2EE4NodeEET_S8_
FNDA:0,_ZSt12__niter_baseIPPPN5ariel4TreeI7ComplexLm2EE4NodeEET_S8_
FN:313,_ZSt12__niter_baseIPPPPN5ariel4TreeI7ComplexLm2EE4NodeEET_S9_
FNDA:0,_ZSt12__niter_baseIPPPPN5ariel4TreeI7ComplexLm2EE4NodeEET_S9_
FN:335,_ZSt12__niter_wrapIPPPN5ariel4TreeI7ComplexLm2EE4NodeEET_RKS8_S8_
FNDA:0,_ZSt12__niter_wrapIPPPN5ariel4TreeI7ComplexLm2EE4NodeEET_RKS8_S8_
FN:335,_ZSt12__niter_wrapIPPPPN5ariel4TreeI7ComplexLm2EE4NodeEET_RKS9_S9_
FNDA:0,_ZSt12__niter_wrapIPPPPN5ariel4TreeI7ComplexLm2EE4NodeEET_RKS9_S9_
FN:420,_ZNSt11__copy_moveILb0ELb1ESt26random_access_iterator_tagE8__copy_mIPPPN5ariel4TreeI7ComplexLm2EE4NodeEEEPT_PKSB_SE_SC_
FNDA:0,_ZNSt11__copy_moveILb0ELb1ESt26random_access_iterator_tagE8__copy_mIPPPN5ariel4TreeI7ComplexLm2EE4NodeEEEPT_PKSB_SE_SC_
FN:420,_ZNSt11__copy_moveILb0ELb1ESt26random_access_iterator_tagE8__copy_mIPPN5ariel4TreeI7ComplexLm2EE4NodeEEEPT_PKSA_SD_SB_
FNDA:0,_ZNSt11__copy_moveILb0ELb1ESt26random_access_iterator_tagE8__copy_mIPPN5ariel4TreeI7ComplexLm2EE4NodeEEEPT_PKSA_SD_SB_
FN:486,_ZSt14__copy_move_a2ILb0EPPPN5ariel4TreeI7ComplexLm2EE4NodeES7_ET1_T0_S9_S8_
FNDA:0,_ZSt14__copy_move_a2ILb0EPPPN5ariel4TreeI7ComplexLm2EE4NodeES7_ET1_T0_S9_S8_
FN:486,_ZSt14__copy_move_a2ILb0EPPPPN5ariel4TreeI7ComplexLm2EE4NodeES8_ET1_T0_SA_S9_
FNDA:0,_ZSt14__copy_move_a2ILb0EPPPPN5ariel4TreeI7ComplexLm2EE4NodeES8_ET1_T0_SA_S9_
FN:521,_ZSt14__copy_move_a1ILb0EPPPN5ariel4TreeI7ComplexLm2EE4NodeES7_ET1_T0_S9_S8_
FNDA:0,_ZSt14__copy_move_a1ILb0EPPPN5ariel4TreeI7ComplexLm2EE4NodeES7_ET1_T0_S9_S8_
FN:521,_ZSt14__copy_move_a1ILb0EPPPPN5ariel4TreeI7ComplexLm2EE4NodeES8_ET1_T0_SA_S9_
FNDA:0,_ZSt14__copy_move_a1ILb0EPPPPN5ariel4TreeI7ComplexLm2EE4NodeES8_ET1_T0_SA_S9_
FN:527,_ZSt13__copy_move_aILb0EPPPPN5ariel4TreeI7ComplexLm2EE4NodeES8_ET1_T0_SA_S9_
FNDA:0,_ZSt13__copy_move_aILb0EPPPPN5ariel4TreeI7ComplexLm2EE4NodeES8_ET1_T0_SA_S9_
FN:527,_ZSt13__copy_move_aILb0EPPPN5ariel4TreeI7ComplexLm2EE4NodeES7_ET1_T0_S9_S8_
FNDA:0,_ZSt13__copy_move_aILb0EPPPN5ariel4TreeI7ComplexLm2EE4NodeES7_ET1_T0_S9_S8_
FN:611,_ZSt4copyIPPPN5ariel4TreeI7ComplexLm2EE4NodeES7_ET0_T_S9_S8_
FNDA:0,_ZSt4copyIPPPN5ariel4TreeI7ComplexLm2EE4NodeES7_ET0_T_S9_S8_
FN:611,_ZSt4copyIPPPPN5ariel4TreeI7ComplexLm2EE4NodeES8_ET0_T_SA_S9_
FNDA:0,_ZSt4copyIPPPPN5ariel4TreeI7ComplexLm2EE4NodeES8_ET0_T_SA_S9_
FN:731,_ZNSt20__copy_move_backwardILb0ELb1ESt26random_access_iterator_tagE13__copy_move_bIPPN5ariel4TreeI7ComplexLm2EE4NodeEEEPT_PKSA_SD_SB_
FNDA:0,_ZNSt20__copy_move_backwardILb0ELb1ESt26random_access_iterator_tagE13__copy_move_bIPPN5ariel4TreeI7ComplexLm2EE4NodeEEEPT_PKSA_SD_SB_
FN:731,_ZNSt20__copy_move_backwardILb0ELb1ESt26random_access_iterator_tagE13__copy_move_bIPPPN5ariel4TreeI7ComplexLm2EE4NodeEEEPT_PKSB_SE_SC_
FNDA:0,_ZNSt20__copy_move_backwardILb0ELb1ESt26random_access_iterator_tagE13__copy_move_bIPPPN5ariel4TreeI7ComplexLm2EE4NodeEEEPT_PKSB_SE_SC_
FN:750,_ZSt23__copy_move_backward_a2ILb0EPPPN5ariel4TreeI7ComplexLm2EE4NodeES7_ET1_T0_S9_S8_
FNDA:0,_ZSt23__copy_move_backward_a2ILb0EPPPN5ariel4TreeI7ComplexLm2EE4NodeES7_ET1_T0_S9_S8_
FN:750,_ZSt23__copy_move_backward_a2ILb0EPPPPN5ariel4TreeI7ComplexLm2EE4NodeES8_ET1_T0_SA_S9_
FNDA:0,_ZSt23__copy_move_backward_a2ILb0EPPPPN5ariel4TreeI7ComplexLm2EE4NodeES8_ET1_T0_SA_S9_
FN:768,_ZSt23__copy_move_backward_a1ILb0EPPPN5ariel4TreeI7ComplexLm2EE4NodeES7_ET1_T0_S9_S8_
FNDA:0,_ZSt23__copy_move_backward_a1ILb0EPPPN5ariel4TreeI7ComplexLm2EE4NodeES7_ET1_T0_S9_S8_
FN:768,_ZSt23__copy_move_backward_a1ILb0EPPPPN5ariel4TreeI7ComplexLm2EE4NodeES8_ET1_T0_SA_S9_
FNDA:0,_ZSt23__copy_move_backward_a1ILb0EPPPPN5ariel4TreeI7ComplexLm2EE4NodeES8_ET1_T0_SA_S9_
FN:796,_ZSt22__copy_move_backward_aILb0EPPPN5ariel4TreeI7ComplexLm2EE4NodeES7_ET1_T0_S9_S8_
FNDA:0,_ZSt22__copy_move_backward_aILb0EPPPN5ariel4TreeI7ComplexLm2EE4NodeES7_ET1_T0_S9_S8_
FN:796,_ZSt22__copy_move_backward_aILb0EPPPPN5ariel4TreeI7ComplexLm2EE4NodeES8_ET1_T0_SA_S9_
FNDA:0,_ZSt22__copy_move_backward_aILb0EPPPPN5ariel4TreeI7ComplexLm2EE4NodeES8_ET1_T0_SA_S9_
FN:848,_ZSt13copy_backwardIPPPPN5ariel4TreeI7ComplexLm2EE4NodeES8_ET0_T_SA_S9_
FNDA:0,_ZSt13copy_backwardIPPPPN5ariel4TreeI7ComplexLm2EE4NodeES8_ET0_T_SA_S9_
FN:848,_ZSt13copy_backwardIPPPN5ariel4TreeI7ComplexLm2EE4NodeES7_ET0_T_S9_S8_
FNDA:0,_ZSt13copy_backwardIPPPN5ariel4TreeI7ComplexLm2EE4NodeES7_ET0_T_S9_S8_
DA:230,8
DA:235,8
DA:236,0
DA:237,8
DA:254,20
DA:259,20
DA:260,1
DA:261,19
DA:313,0
DA:315,0
DA:313,0
DA:315,0
DA:313,24
DA:315,24
DA:335,0
DA:336,0
DA:335,0
DA:336,0
DA:420,0
DA:429,0
DA:430,0
DA:431,0
DA:432,0
DA:420,0
DA:429,0
DA:430,0
DA:431,0
DA:432,0
DA:486,0
DA:495,0
DA:486,0
DA:495,0
DA:521,0
DA:522,0
DA:521,0
DA:522,0
DA:527,0
DA:529,0
DA:532,0
DA:527,0
DA:529,0
DA:532,0
DA:611,0
DA:620,0
DA:611,0
DA:620,0
DA:731,0
DA:740,0
DA:741,0
DA:742,0
DA:743,0
DA:731,0
DA:740,0
DA:741,0
DA:742,0
DA:743,0
DA:750,0
DA:760,0
DA:762,0
DA:750,0
DA:760,0
DA:762,0
DA:768,0
DA:769,0
DA:768,0
DA:769,0
DA:796,0
DA:798,0
DA:801,0
DA:796,0
DA:798,0
DA:801,0
DA:848,0
DA:859,0
DA:848,0
DA:859,0
end_of_record
SF:/usr/include/SFML/System/Vector2.inl
FN:38,_ZN2sf7Vector2IfEC2Eff
FNDA:78568,_ZN2sf7Vector2IfEC2Eff
FN:88,_ZN2sfplIfEENS_7Vector2IT_EERKS3_S5_
FNDA:15456,_ZN2sfplIfEENS_7Vector2IT_EERKS3_S5_
FN:96,_ZN2sfmiIfEENS_7Vector2IT_EERKS3_S5_
FNDA:15456,_ZN2sfmiIfEENS_7Vector2IT_EERKS3_S5_
FN:104,_ZN2sfmlIfEENS_7Vector2IT_EERKS3_S2_
FNDA:30912,_ZN2sfmlIfEENS_7Vector2IT_EERKS3_S2_
FN:139,_ZN2sfdVIfEERNS_7Vector2IT_EES4_S2_
FNDA:5152,_ZN2sfdVIfEERNS_7Vector2IT_EES4_S2_
DA:38,78568
DA:39,78568
DA:40,78568
DA:43,78568
DA:88,15456
DA:90,15456
DA:96,15456
DA:98,15456
DA:104,30912
DA:106,30912
DA:139,5152
DA:141,5152
DA:142,5152
DA:144,5152
end_of_record
SF:/usr/include/SFML/Graphics/Text.hpp
end_of_record
SF:/usr/include/c++/11/bits/allocator.h
FN:156,_ZNSaIPPN5ariel4TreeI7ComplexLm2EE4NodeEEC2Ev
FNDA:1,_ZNSaIPPN5ariel4TreeI7ComplexLm2EE4NodeEEC2Ev
FN:156,_ZNSaIPN5ariel4TreeI7ComplexLm2EE4NodeEEC2Ev
FNDA:15,_ZNSaIPN5ariel4TreeI7ComplexLm2EE4NodeEEC2Ev
FN:156,_ZNSaI7ComplexEC2Ev
FNDA:1,_ZNSaI7ComplexEC2Ev
FN:169,_ZNSaIPPPN5ariel4TreeI7ComplexLm2EE4NodeEEC2IS5_EERKSaIT_E
FNDA:2,_ZNSaIPPPN5ariel4TreeI7ComplexLm2EE4NodeEEC2IS5_EERKSaIT_E
FN:169,_ZNSaIPPN5ariel4TreeI7ComplexLm2EE4NodeEEC2IS4_EERKSaIT_E
FNDA:30,_ZNSaIPPN5ariel4TreeI7ComplexLm2EE4NodeEEC2IS4_EERKSaIT_E
FN:174,_ZNSaIPPPN5ariel4TreeI7ComplexLm2EE4NodeEED2Ev
FNDA:2,_ZNSaIPPPN5ariel4TreeI7ComplexLm2EE4NodeEED2Ev
FN:174,_ZNSaIN2sf6VertexEED2Ev
FNDA:12880,_ZNSaIN2sf6VertexEED2Ev
FN:174,_ZNSaIPPN5ariel4TreeI7ComplexLm2EE4NodeEED2Ev
FNDA:31,_ZNSaIPPN5ariel4TreeI7ComplexLm2EE4NodeEED2Ev
FN:174,_ZNSaIPN5ariel4TreeI7ComplexLm2EE4NodeEED2Ev
FNDA:15,_ZNSaIPN5ariel4TreeI7ComplexLm2EE4NodeEED2Ev
FN:174,_ZNSaI7ComplexED2Ev
FNDA:1,_ZNSaI7ComplexED2Ev
FN:174,_ZNSaIjED2Ev
FNDA:12881,_ZNSaIjED2Ev
DA:156,1
DA:156,15
DA:156,1
DA:169,2
DA:169,30
DA:174,2
DA:174,12880
DA:174,31
DA:174,15
DA:174,1
DA:174,12881
end_of_record
SF:/usr/include/c++/11/iostream
end_of_record
SF:/usr/include/c++/11/bits/deque.tcc
FN:164,_ZNSt5dequeIPPN5ariel4TreeI7ComplexLm2EE4NodeESaIS6_EE12emplace_backIJS6_EEEvDpOT_
FNDA:11,_ZNSt5dequeIPPN5ariel4TreeI7ComplexLm2EE4NodeESaIS6_EE12emplace_backIJS6_EEEvDpOT_
FN:484,_ZNSt5dequeIPPN5ariel4TreeI7ComplexLm2EE4NodeESaIS6_EE16_M_push_back_auxIJS6_EEEvDpOT_
FNDA:0,_ZNSt5dequeIPPN5ariel4TreeI7ComplexLm2EE4NodeESaIS6_EE16_M_push_back_auxIJS6_EEEvDpOT_
FN:484,_ZNSt5dequeIPN5ariel4TreeI7ComplexLm2EE4NodeESaIS5_EE16_M_push_back_auxIJRKS5_EEEvDpOT_
FNDA:0,_ZNSt5dequeIPN5ariel4TreeI7ComplexLm2EE4NodeESaIS5_EE16_M_push_back_auxIJRKS5_EEEvDpOT_
FN:576,_ZNSt5dequeIPPN5ariel4TreeI7ComplexLm2EE4NodeESaIS6_EE16_M_pop_front_auxEv
FNDA:0,_ZNSt5dequeIPPN5ariel4TreeI7ComplexLm2EE4NodeESaIS6_EE16_M_pop_front_auxEv
FN:576,_ZNSt5dequeIPN5ariel4TreeI7ComplexLm2EE4NodeESaIS5_EE16_M_pop_front_auxEv
FNDA:0,_ZNSt5dequeIPN5ariel4TreeI7ComplexLm2EE4NodeESaIS5_EE16_M_pop_front_auxEv
FN:931,_ZNSt5dequeIPPN5ariel4TreeI7ComplexLm2EE4NodeESaIS6_EE17_M_reallocate_mapEmb
FNDA:0,_ZNSt5dequeIPPN5ariel4TreeI7ComplexLm2EE4NodeESaIS6_EE17_M_reallocate_mapEmb
FN:931,_ZNSt5dequeIPN5ariel4TreeI7ComplexLm2EE4NodeESaIS5_EE17_M_reallocate_mapEmb
FNDA:0,_ZNSt5dequeIPN5ariel4TreeI7ComplexLm2EE4NodeESaIS5_EE17_M_reallocate_mapEmb
DA:164,11
DA:167,11
DA:168,11
DA:170,11
DA:173,11
DA:176,0
DA:180,11
DA:484,0
DA:492,0
DA:493,0
DA:496,0
DA:497,0
DA:501,0
DA:507,0
DA:509,0
DA:516,0
DA:484,0
DA:492,0
DA:493,0
DA:496,0
DA:497,0
DA:501,0
DA:507,0
DA:509,0
DA:516,0
DA:576,0
DA:579,0
DA:581,0
DA:582,0
DA:583,0
DA:584,0
DA:576,0
DA:579,0
DA:581,0
DA:582,0
DA:583,0
DA:584,0
DA:931,0
DA:934,0
DA:935,0
DA:936,0
DA:939,0
DA:941,0
DA:942,0
DA:943,0
DA:944,0
DA:945,0
DA:946,0
DA:949,0
DA:950,0
DA:951,0
DA:955,0
DA:956,0
DA:959,0
DA:960,0
DA:961,0
DA:962,0
DA:963,0
DA:965,0
DA:967,0
DA:968,0
DA:971,0
DA:972,0
DA:973,0
DA:931,0
DA:934,0
DA:935,0
DA:936,0
DA:939,0
DA:941,0
DA:942,0
DA:943,0
DA:944,0
DA:945,0
DA:946,0
DA:949,0
DA:950,0
DA:951,0
DA:955,0
DA:956,0
DA:959,0
DA:960,0
DA:961,0
DA:962,0
DA:963,0
DA:965,0
DA:967,0
DA:968,0
DA:971,0
DA:972,0
DA:973,0
end_of_record
SF:/usr/include/c++/11/bits/stl_deque.h
FN:96,_ZSt16__deque_buf_sizem
FNDA:96,_ZSt16__deque_buf_sizem
FN:131,_ZNSt15_Deque_iteratorIPPN5ariel4TreeI7ComplexLm2EE4NodeERS6_PS6_E14_S_buffer_sizeEv
FNDA:2,_ZNSt15_Deque_iteratorIPPN5ariel4TreeI7ComplexLm2EE4NodeERS6_PS6_E14_S_buffer_sizeEv
FN:131,_ZNSt15_Deque_iteratorIPN5ariel4TreeI7ComplexLm2EE4NodeERS5_PS5_E14_S_buffer_sizeEv
FNDA:30,_ZNSt15_Deque_iteratorIPN5ariel4TreeI7ComplexLm2EE4NodeERS5_PS5_E14_S_buffer_sizeEv
FN:151,_ZNSt15_Deque_iteratorIPPN5ariel4TreeI7ComplexLm2EE4NodeERS6_PS6_EC2Ev
FNDA:2,_ZNSt15_Deque_iteratorIPPN5ariel4TreeI7ComplexLm2EE4NodeERS6_PS6_EC2Ev
FN:151,_ZNSt15_Deque_iteratorIPN5ariel4TreeI7ComplexLm2EE4NodeERS5_PS5_EC2Ev
FNDA:30,_ZNSt15_Deque_iteratorIPN5ariel4TreeI7ComplexLm2EE4NodeERS5_PS5_EC2Ev
FN:164,_ZNSt15_Deque_iteratorIPN5ariel4TreeI7ComplexLm2EE4NodeERKS5_PS6_EC2IS_IS5_RS5_PS5_EvEERKT_
FNDA:10,_ZNSt15_Deque_iteratorIPN5ariel4TreeI7ComplexLm2EE4NodeERKS5_PS6_EC2IS_IS5_RS5_PS5_EvEERKT_
FN:168,_ZNSt15_Deque_iteratorIPN5ariel4TreeI7ComplexLm2EE4NodeERS5_PS5_EC2ERKS8_
FNDA:45,_ZNSt15_Deque_iteratorIPN5ariel4TreeI7ComplexLm2EE4NodeERS5_PS5_EC2ERKS8_
FN:168,_ZNSt15_Deque_iteratorIPPN5ariel4TreeI7ComplexLm2EE4NodeERS6_PS6_EC2ERKS9_
FNDA:7,_ZNSt15_Deque_iteratorIPPN5ariel4TreeI7ComplexLm2EE4NodeERS6_PS6_EC2ERKS9_
FN:180,_ZNKSt15_Deque_iteratorIPN5ariel4TreeI7ComplexLm2EE4NodeERS5_PS5_EdeEv
FNDA:15,_ZNKSt15_Deque_iteratorIPN5ariel4TreeI7ComplexLm2EE4NodeERS5_PS5_EdeEv
FN:180,_ZNKSt15_Deque_iteratorIPPN5ariel4TreeI7ComplexLm2EE4NodeERS6_PS6_EdeEv
FNDA:5,_ZNKSt15_Deque_iteratorIPPN5ariel4TreeI7ComplexLm2EE4NodeERS6_PS6_EdeEv
FN:180,_ZNKSt15_Deque_iteratorIPN5ariel4TreeI7ComplexLm2EE4NodeERKS5_PS6_EdeEv
FNDA:10,_ZNKSt15_Deque_iteratorIPN5ariel4TreeI7ComplexLm2EE4NodeERKS5_PS6_EdeEv
FN:260,_ZNSt15_Deque_iteratorIPN5ariel4TreeI7ComplexLm2EE4NodeERS5_PS5_E11_M_set_nodeEPS7_
FNDA:30,_ZNSt15_Deque_iteratorIPN5ariel4TreeI7ComplexLm2EE4NodeERS5_PS5_E11_M_set_nodeEPS7_
FN:260,_ZNSt15_Deque_iteratorIPPN5ariel4TreeI7ComplexLm2EE4NodeERS6_PS6_E11_M_set_nodeEPS8_
FNDA:2,_ZNSt15_Deque_iteratorIPPN5ariel4TreeI7ComplexLm2EE4NodeERS6_PS6_E11_M_set_nodeEPS8_
FN:268,_ZSteqRKSt15_Deque_iteratorIPN5ariel4TreeI7ComplexLm2EE4NodeERS5_PS5_ESA_
FNDA:18,_ZSteqRKSt15_Deque_iteratorIPN5ariel4TreeI7ComplexLm2EE4NodeERS5_PS5_ESA_
FN:353,_ZStmiRKSt15_Deque_iteratorIPPN5ariel4TreeI7ComplexLm2EE4NodeERS6_PS6_ESB_
FNDA:0,_ZStmiRKSt15_Deque_iteratorIPPN5ariel4TreeI7ComplexLm2EE4NodeERS6_PS6_ESB_
FN:353,_ZStmiRKSt15_Deque_iteratorIPN5ariel4TreeI7ComplexLm2EE4NodeERS5_PS5_ESA_
FNDA:0,_ZStmiRKSt15_Deque_iteratorIPN5ariel4TreeI7ComplexLm2EE4NodeERS5_PS5_ESA_
FN:437,_ZNSt11_Deque_baseIPN5ariel4TreeI7ComplexLm2EE4NodeESaIS5_EEC2Ev
FNDA:15,_ZNSt11_Deque_baseIPN5ariel4TreeI7ComplexLm2EE4NodeESaIS5_EEC2Ev
FN:437,_ZNSt11_Deque_baseIPPN5ariel4TreeI7ComplexLm2EE4NodeESaIS6_EEC2Ev
FNDA:1,_ZNSt11_Deque_baseIPPN5ariel4TreeI7ComplexLm2EE4NodeESaIS6_EEC2Ev
FN:495,_ZNSt11_Deque_baseIPPN5ariel4TreeI7ComplexLm2EE4NodeESaIS6_EE16_Deque_impl_dataC2Ev
FNDA:1,_ZNSt11_Deque_baseIPPN5ariel4TreeI7ComplexLm2EE4NodeESaIS6_EE16_Deque_impl_dataC2Ev
FN:495,_ZNSt11_Deque_baseIPN5ariel4TreeI7ComplexLm2EE4NodeESaIS5_EE16_Deque_impl_dataC2Ev
FNDA:15,_ZNSt11_Deque_baseIPN5ariel4TreeI7ComplexLm2EE4NodeESaIS5_EE16_Deque_impl_dataC2Ev
FN:524,_ZNSt11_Deque_baseIPPN5ariel4TreeI7ComplexLm2EE4NodeESaIS6_EE11_Deque_implC2Ev
FNDA:1,_ZNSt11_Deque_baseIPPN5ariel4TreeI7ComplexLm2EE4NodeESaIS6_EE11_Deque_implC2Ev
FN:524,_ZNSt11_Deque_baseIPN5ariel4TreeI7ComplexLm2EE4NodeESaIS5_EE11_Deque_implC2Ev
FNDA:15,_ZNSt11_Deque_baseIPN5ariel4TreeI7ComplexLm2EE4NodeESaIS5_EE11_Deque_implC2Ev
FN:547,_ZNSt11_Deque_baseIPN5ariel4TreeI7ComplexLm2EE4NodeESaIS5_EE19_M_get_Tp_allocatorEv
FNDA:30,_ZNSt11_Deque_baseIPN5ariel4TreeI7ComplexLm2EE4NodeESaIS5_EE19_M_get_Tp_allocatorEv
FN:547,_ZNSt11_Deque_baseIPPN5ariel4TreeI7ComplexLm2EE4NodeESaIS6_EE19_M_get_Tp_allocatorEv
FNDA:6,_ZNSt11_Deque_baseIPPN5ariel4TreeI7ComplexLm2EE4NodeESaIS6_EE19_M_get_Tp_allocatorEv
FN:551,_ZNKSt11_Deque_baseIPPN5ariel4TreeI7ComplexLm2EE4NodeESaIS6_EE19_M_get_Tp_allocatorEv
FNDA:2,_ZNKSt11_Deque_baseIPPN5ariel4TreeI7ComplexLm2EE4NodeESaIS6_EE19_M_get_Tp_allocatorEv
FN:551,_ZNKSt11_Deque_baseIPN5ariel4TreeI7ComplexLm2EE4NodeESaIS5_EE19_M_get_Tp_allocatorEv
FNDA:30,_ZNKSt11_Deque_baseIPN5ariel4TreeI7ComplexLm2EE4NodeESaIS5_EE19_M_get_Tp_allocatorEv
FN:555,_ZNKSt11_Deque_baseIPPN5ariel4TreeI7ComplexLm2EE4NodeESaIS6_EE20_M_get_map_allocatorEv
FNDA:2,_ZNKSt11_Deque_baseIPPN5ariel4TreeI7ComplexLm2EE4NodeESaIS6_EE20_M_get_map_allocatorEv
FN:555,_ZNKSt11_Deque_baseIPN5ariel4TreeI7ComplexLm2EE4NodeESaIS5_EE20_M_get_map_allocatorEv
FNDA:30,_ZNKSt11_Deque_baseIPN5ariel4TreeI7ComplexLm2EE4NodeESaIS5_EE20_M_get_map_allocatorEv
FN:559,_ZNSt11_Deque_baseIPN5ariel4TreeI7ComplexLm2EE4NodeESaIS5_EE16_M_allocate_nodeEv
FNDA:15,_ZNSt11_Deque_baseIPN5ariel4TreeI7ComplexLm2EE4NodeESaIS5_EE16_M_allocate_nodeEv
FN:559,_ZNSt11_Deque_baseIPPN5ariel4TreeI7ComplexLm2EE4NodeESaIS6_EE16_M_allocate_nodeEv
FNDA:1,_ZNSt11_Deque_baseIPPN5ariel4TreeI7ComplexLm2EE4NodeESaIS6_EE16_M_allocate_nodeEv
FN:566,_ZNSt11_Deque_baseIPN5ariel4TreeI7ComplexLm2EE4NodeESaIS5_EE18_M_deallocate_nodeEPS5_
FNDA:15,_ZNSt11_Deque_baseIPN5ariel4TreeI7ComplexLm2EE4NodeESaIS5_EE18_M_deallocate_nodeEPS5_
FN:566,_ZNSt11_Deque_baseIPPN5ariel4TreeI7ComplexLm2EE4NodeESaIS6_EE18_M_deallocate_nodeEPS6_
FNDA:1,_ZNSt11_Deque_baseIPPN5ariel4TreeI7ComplexLm2EE4NodeESaIS6_EE18_M_deallocate_nodeEPS6_
FN:573,_ZNSt11_Deque_baseIPN5ariel4TreeI7ComplexLm2EE4NodeESaIS5_EE15_M_allocate_mapEm
FNDA:15,_ZNSt11_Deque_baseIPN5ariel4TreeI7ComplexLm2EE4NodeESaIS5_EE15_M_allocate_mapEm
FN:573,_ZNSt11_Deque_baseIPPN5ariel4TreeI7ComplexLm2EE4NodeESaIS6_EE15_M_allocate_mapEm
FNDA:1,_ZNSt11_Deque_baseIPPN5ariel4TreeI7ComplexLm2EE4NodeESaIS6_EE15_M_allocate_mapEm
FN:580,_ZNSt11_Deque_baseIPPN5ariel4TreeI7ComplexLm2EE4NodeESaIS6_EE17_M_deallocate_mapEPPS6_m
FNDA:1,_ZNSt11_Deque_baseIPPN5ariel4TreeI7ComplexLm2EE4NodeESaIS6_EE17_M_deallocate_mapEPPS6_m
FN:580,_ZNSt11_Deque_baseIPN5ariel4TreeI7ComplexLm2EE4NodeESaIS5_EE17_M_deallocate_mapEPPS5_m
FNDA:15,_ZNSt11_Deque_baseIPN5ariel4TreeI7ComplexLm2EE4NodeESaIS5_EE17_M_deallocate_mapEPPS5_m
FN:596,_ZNSt11_Deque_baseIPN5ariel4TreeI7ComplexLm2EE4NodeESaIS5_EED2Ev
FNDA:15,_ZNSt11_Deque_baseIPN5ariel4TreeI7ComplexLm2EE4NodeESaIS5_EED2Ev
FN:596,_ZNSt11_Deque_baseIPPN5ariel4TreeI7ComplexLm2EE4NodeESaIS6_EED2Ev
FNDA:1,_ZNSt11_Deque_baseIPPN5ariel4TreeI7ComplexLm2EE4NodeESaIS6_EED2Ev
FN:617,_ZNSt11_Deque_baseIPPN5ariel4TreeI7ComplexLm2EE4NodeESaIS6_EE17_M_initialize_mapEm
FNDA:1,_ZNSt11_Deque_baseIPPN5ariel4TreeI7ComplexLm2EE4NodeESaIS6_EE17_M_initialize_mapEm
FN:617,_ZNSt11_Deque_baseIPN5ariel4TreeI7ComplexLm2EE4NodeESaIS5_EE17_M_initialize_mapEm
FNDA:15,_ZNSt11_Deque_baseIPN5ariel4TreeI7ComplexLm2EE4NodeESaIS5_EE17_M_initialize_mapEm
FN:656,_ZNSt11_Deque_baseIPN5ariel4TreeI7ComplexLm2EE4NodeESaIS5_EE15_M_create_nodesEPPS5_S9_
FNDA:15,_ZNSt11_Deque_baseIPN5ariel4TreeI7ComplexLm2EE4NodeESaIS5_EE15_M_create_nodesEPPS5_S9_
FN:656,_ZNSt11_Deque_baseIPPN5ariel4TreeI7ComplexLm2EE4NodeESaIS6_EE15_M_create_nodesEPPS6_SA_
FNDA:1,_ZNSt11_Deque_baseIPPN5ariel4TreeI7ComplexLm2EE4NodeESaIS6_EE15_M_create_nodesEPPS6_SA_
FN:674,_ZNSt11_Deque_baseIPPN5ariel4TreeI7ComplexLm2EE4NodeESaIS6_EE16_M_destroy_nodesEPPS6_SA_
FNDA:1,_ZNSt11_Deque_baseIPPN5ariel4TreeI7ComplexLm2EE4NodeESaIS6_EE16_M_destroy_nodesEPPS6_SA_
FN:674,_ZNSt11_Deque_baseIPN5ariel4TreeI7ComplexLm2EE4NodeESaIS5_EE16_M_destroy_nodesEPPS5_S9_
FNDA:15,_ZNSt11_Deque_baseIPN5ariel4TreeI7ComplexLm2EE4NodeESaIS5_EE16_M_destroy_nodesEPPS5_S9_
FN:834,_ZNSt5dequeIPN5ariel4TreeI7ComplexLm2EE4NodeESaIS5_EEC2Ev
FNDA:15,_ZNSt5dequeIPN5ariel4TreeI7ComplexLm2EE4NodeESaIS5_EEC2Ev
FN:834,_ZNSt5dequeIPPN5ariel4TreeI7ComplexLm2EE4NodeESaIS6_EEC2Ev
FNDA:1,_ZNSt5dequeIPPN5ariel4TreeI7ComplexLm2EE4NodeESaIS6_EEC2Ev
FN:1006,_ZNSt5dequeIPPN5ariel4TreeI7ComplexLm2EE4NodeESaIS6_EED2Ev
FNDA:1,_ZNSt5dequeIPPN5ariel4TreeI7ComplexLm2EE4NodeESaIS6_EED2Ev
FN:1006,_ZNSt5dequeIPN5ariel4TreeI7ComplexLm2EE4NodeESaIS5_EED2Ev
FNDA:15,_ZNSt5dequeIPN5ariel4TreeI7ComplexLm2EE4NodeESaIS5_EED2Ev
FN:1128,_ZNSt5dequeIPN5ariel4TreeI7ComplexLm2EE4NodeESaIS5_EE5beginEv
FNDA:30,_ZNSt5dequeIPN5ariel4TreeI7ComplexLm2EE4NodeESaIS5_EE5beginEv
FN:1128,_ZNSt5dequeIPPN5ariel4TreeI7ComplexLm2EE4NodeESaIS6_EE5beginEv
FNDA:6,_ZNSt5dequeIPPN5ariel4TreeI7ComplexLm2EE4NodeESaIS6_EE5beginEv
FN:1136,_ZNKSt5dequeIPN5ariel4TreeI7ComplexLm2EE4NodeESaIS5_EE5beginEv
FNDA:10,_ZNKSt5dequeIPN5ariel4TreeI7ComplexLm2EE4NodeESaIS5_EE5beginEv
FN:1145,_ZNSt5dequeIPPN5ariel4TreeI7ComplexLm2EE4NodeESaIS6_EE3endEv
FNDA:1,_ZNSt5dequeIPPN5ariel4TreeI7ComplexLm2EE4NodeESaIS6_EE3endEv
FN:1145,_ZNSt5dequeIPN5ariel4TreeI7ComplexLm2EE4NodeESaIS5_EE3endEv
FNDA:15,_ZNSt5dequeIPN5ariel4TreeI7ComplexLm2EE4NodeESaIS5_EE3endEv
FN:1233,_ZNKSt5dequeIPN5ariel4TreeI7ComplexLm2EE4NodeESaIS5_EE4sizeEv
FNDA:0,_ZNKSt5dequeIPN5ariel4TreeI7ComplexLm2EE4NodeESaIS5_EE4sizeEv
FN:1233,_ZNKSt5dequeIPPN5ariel4TreeI7ComplexLm2EE4NodeESaIS6_EE4sizeEv
FNDA:0,_ZNKSt5dequeIPPN5ariel4TreeI7ComplexLm2EE4NodeESaIS6_EE4sizeEv
FN:1238,_ZNKSt5dequeIPPN5ariel4TreeI7ComplexLm2EE4NodeESaIS6_EE8max_sizeEv
FNDA:0,_ZNKSt5dequeIPPN5ariel4TreeI7ComplexLm2EE4NodeESaIS6_EE8max_sizeEv
FN:1238,_ZNKSt5dequeIPN5ariel4TreeI7ComplexLm2EE4NodeESaIS5_EE8max_sizeEv
FNDA:0,_ZNKSt5dequeIPN5ariel4TreeI7ComplexLm2EE4NodeESaIS5_EE8max_sizeEv
FN:1311,_ZNKSt5dequeIPN5ariel4TreeI7ComplexLm2EE4NodeESaIS5_EE5emptyEv
FNDA:18,_ZNKSt5dequeIPN5ariel4TreeI7ComplexLm2EE4NodeESaIS5_EE5emptyEv
FN:1405,_ZNSt5dequeIPPN5ariel4TreeI7ComplexLm2EE4NodeESaIS6_EE5frontEv
FNDA:5,_ZNSt5dequeIPPN5ariel4TreeI7ComplexLm2EE4NodeESaIS6_EE5frontEv
FN:1405,_ZNSt5dequeIPN5ariel4TreeI7ComplexLm2EE4NodeESaIS5_EE5frontEv
FNDA:15,_ZNSt5dequeIPN5ariel4TreeI7ComplexLm2EE4NodeESaIS5_EE5frontEv
FN:1416,_ZNKSt5dequeIPN5ariel4TreeI7ComplexLm2EE4NodeESaIS5_EE5frontEv
FNDA:10,_ZNKSt5dequeIPN5ariel4TreeI7ComplexLm2EE4NodeESaIS5_EE5frontEv
FN:1496,_ZNSt5dequeIPN5ariel4TreeI7ComplexLm2EE4NodeESaIS5_EE9push_backERKS5_
FNDA:15,_ZNSt5dequeIPN5ariel4TreeI7ComplexLm2EE4NodeESaIS5_EE9push_backERKS5_
FN:1511,_ZNSt5dequeIPPN5ariel4TreeI7ComplexLm2EE4NodeESaIS6_EE9push_backEOS6_
FNDA:11,_ZNSt5dequeIPPN5ariel4TreeI7ComplexLm2EE4NodeESaIS6_EE9push_backEOS6_
FN:1532,_ZNSt5dequeIPN5ariel4TreeI7ComplexLm2EE4NodeESaIS5_EE9pop_frontEv
FNDA:15,_ZNSt5dequeIPN5ariel4TreeI7ComplexLm2EE4NodeESaIS5_EE9pop_frontEv
FN:1532,_ZNSt5dequeIPPN5ariel4TreeI7ComplexLm2EE4NodeESaIS6_EE9pop_frontEv
FNDA:5,_ZNSt5dequeIPPN5ariel4TreeI7ComplexLm2EE4NodeESaIS6_EE9pop_frontEv
FN:1834,_ZNSt5dequeIPN5ariel4TreeI7ComplexLm2EE4NodeESaIS5_EE11_S_max_sizeERKS6_
FNDA:0,_ZNSt5dequeIPN5ariel4TreeI7ComplexLm2EE4NodeESaIS5_EE11_S_max_sizeERKS6_
FN:1834,_ZNSt5dequeIPPN5ariel4TreeI7ComplexLm2EE4NodeESaIS6_EE11_S_max_sizeERKS7_
FNDA:0,_ZNSt5dequeIPPN5ariel4TreeI7ComplexLm2EE4NodeESaIS6_EE11_S_max_sizeERKS7_
FN:2045,_ZNSt5dequeIPN5ariel4TreeI7ComplexLm2EE4NodeESaIS5_EE15_M_destroy_dataESt15_Deque_iteratorIS5_RS5_PS5_ESB_RKS6_
FNDA:15,_ZNSt5dequeIPN5ariel4TreeI7ComplexLm2EE4NodeESaIS5_EE15_M_destroy_dataESt15_Deque_iteratorIS5_RS5_PS5_ESB_RKS6_
FN:2045,_ZNSt5dequeIPPN5ariel4TreeI7ComplexLm2EE4NodeESaIS6_EE15_M_destroy_dataESt15_Deque_iteratorIS6_RS6_PS6_ESC_RKS7_
FNDA:1,_ZNSt5dequeIPPN5ariel4TreeI7ComplexLm2EE4NodeESaIS6_EE15_M_destroy_dataESt15_Deque_iteratorIS6_RS6_PS6_ESC_RKS7_
FN:2126,_ZNSt5dequeIPPN5ariel4TreeI7ComplexLm2EE4NodeESaIS6_EE22_M_reserve_map_at_backEm
FNDA:0,_ZNSt5dequeIPPN5ariel4TreeI7ComplexLm2EE4NodeESaIS6_EE22_M_reserve_map_at_backEm
FN:2126,_ZNSt5dequeIPN5ariel4TreeI7ComplexLm2EE4NodeESaIS5_EE22_M_reserve_map_at_backEm
FNDA:0,_ZNSt5dequeIPN5ariel4TreeI7ComplexLm2EE4NodeESaIS5_EE22_M_reserve_map_at_backEm
DA:96,96
DA:98,96
DA:131,2
DA:132,2
DA:131,30
DA:132,30
DA:151,2
DA:152,2
DA:151,30
DA:152,30
DA:164,10
DA:165,10
DA:166,10
DA:168,7
DA:169,7
DA:170,7
DA:168,45
DA:169,45
DA:170,45
DA:180,10
DA:181,10
DA:180,5
DA:181,5
DA:180,15
DA:181,15
DA:260,2
DA:262,2
DA:263,2
DA:264,2
DA:265,2
DA:260,30
DA:262,30
DA:263,30
DA:264,30
DA:265,30
DA:268,18
DA:269,18
DA:353,0
DA:355,0
DA:356,0
DA:357,0
DA:358,0
DA:353,0
DA:355,0
DA:356,0
DA:357,0
DA:358,0
DA:437,1
DA:438,1
DA:439,1
DA:437,15
DA:438,15
DA:439,15
DA:495,1
DA:496,1
DA:497,1
DA:495,15
DA:496,15
DA:497,15
DA:524,1
DA:526,1
DA:527,1
DA:524,15
DA:526,15
DA:527,15
DA:547,6
DA:548,6
DA:547,30
DA:548,30
DA:551,2
DA:552,2
DA:551,30
DA:552,30
DA:555,2
DA:556,2
DA:555,30
DA:556,30
DA:559,1
DA:562,1
DA:559,15
DA:562,15
DA:566,1
DA:569,1
DA:570,1
DA:566,15
DA:569,15
DA:570,15
DA:573,1
DA:575,1
DA:576,2
DA:577,1
DA:573,15
DA:575,15
DA:576,30
DA:577,15
DA:580,1
DA:582,1
DA:583,1
DA:584,1
DA:580,15
DA:582,15
DA:583,15
DA:584,15
DA:596,1
DA:599,1
DA:601,1
DA:602,1
DA:603,1
DA:605,1
DA:596,15
DA:599,15
DA:601,15
DA:602,15
DA:603,15
DA:605,15
DA:617,1
DA:620,1
DA:623,2
DA:624,1
DA:625,1
DA:632,1
DA:633,1
DA:634,1
DA:637,1
DA:638,0
DA:640,0
DA:641,0
DA:642,0
DA:643,0
DA:646,1
DA:647,1
DA:648,1
DA:649,2
DA:650,1
DA:651,1
DA:652,1
DA:617,15
DA:620,15
DA:623,30
DA:624,15
DA:625,15
DA:632,15
DA:633,15
DA:634,15
DA:637,15
DA:638,0
DA:640,0
DA:641,0
DA:642,0
DA:643,0
DA:646,15
DA:647,15
DA:648,15
DA:649,30
DA:650,15
DA:651,15
DA:652,15
DA:656,1
DA:662,2
DA:663,1
DA:665,0
DA:667,0
DA:668,0
DA:670,1
DA:656,15
DA:662,30
DA:663,15
DA:665,0
DA:667,0
DA:668,0
DA:670,15
DA:674,1
DA:678,2
DA:679,1
DA:680,1
DA:674,15
DA:678,30
DA:679,15
DA:680,15
DA:834,1
DA:834,15
DA:1006,1
DA:1007,1
DA:1006,15
DA:1007,15
DA:1128,6
DA:1129,6
DA:1128,30
DA:1129,30
DA:1136,10
DA:1137,10
DA:1145,1
DA:1146,1
DA:1145,15
DA:1146,15
DA:1233,0
DA:1234,0
DA:1233,0
DA:1234,0
DA:1238,0
DA:1239,0
DA:1238,0
DA:1239,0
DA:1311,18
DA:1312,18
DA:1405,5
DA:1408,5
DA:1405,15
DA:1408,15
DA:1416,10
DA:1419,10
DA:1496,15
DA:1498,15
DA:1499,15
DA:1501,15
DA:1503,15
DA:1506,0
DA:1507,15
DA:1511,11
DA:1512,11
DA:1532,5
DA:1535,5
DA:1536,5
DA:1538,5
DA:1540,5
DA:1543,0
DA:1544,5
DA:1532,15
DA:1535,15
DA:1536,15
DA:1538,15
DA:1540,15
DA:1543,0
DA:1544,15
DA:1834,0
DA:1836,0
DA:1837,0
DA:1838,0
DA:1834,0
DA:1836,0
DA:1837,0
DA:1838,0
DA:2045,1
DA:2050,1
DA:2045,15
DA:2050,15
DA:2126,0
DA:2128,0
DA:2129,0
DA:2130,0
DA:2131,0
DA:2126,0
DA:2128,0
DA:2129,0
DA:2130,0
DA:2131,0
end_of_record
SF:/usr/include/SFML/Graphics/Drawable.hpp
FN:52,_ZN2sf8DrawableD0Ev
FNDA:0,_ZN2sf8DrawableD0Ev
FN:52,_ZN2sf8DrawableD2Ev
FNDA:19320,_ZN2sf8DrawableD2Ev
DA:52,0
DA:52,19320
end_of_record
SF:/usr/include/c++/11/ext/type_traits.h
FN:152,_ZN9__gnu_cxx17__is_null_pointerIKcEEbPT_
FNDA:0,_ZN9__gnu_cxx17__is_null_pointerIKcEEbPT_
DA:152,0
DA:153,0
end_of_record
SF:/usr/include/SFML/Window/ContextSettings.hpp
FN:62,_ZN2sf15ContextSettingsC2Ejjjjjjb
FNDA:1,_ZN2sf15ContextSettingsC2Ejjjjjjb
DA:62,1
DA:63,1
DA:64,1
DA:65,1
DA:66,1
DA:67,1
DA:68,1
DA:69,1
DA:71,1
end_of_record
